SF:/Users/smeya/git/cargo-quickstart/crates/quickstart-cli/src/args.rs
FN:211,_RNvNtCsj95mf2ixomG_16cargo_quickstart4args16validate_edition
FN:219,_RNvNtCsj95mf2ixomG_16cargo_quickstart4args16validate_license
FN:198,_RNvXNtCsj95mf2ixomG_16cargo_quickstart4argsNtB2_5ShellNtNtCs6FgkbHSHiEg_4core3fmt7Display3fmt
FN:211,_RNvNtCs92oXZPd7plo_16cargo_quickstart4args16validate_edition
FN:219,_RNvNtCs92oXZPd7plo_16cargo_quickstart4args16validate_license
FN:198,_RNvXNtCs92oXZPd7plo_16cargo_quickstart4argsNtB2_5ShellNtNtCs6FgkbHSHiEg_4core3fmt7Display3fmt
FN:233,_RNvNtNtCs92oXZPd7plo_16cargo_quickstart4args5testss_10verify_cli
FN:239,_RNvNtNtCs92oXZPd7plo_16cargo_quickstart4args5testss_16test_new_command
FN:251,_RNvNtNtCs92oXZPd7plo_16cargo_quickstart4args5testss_17test_init_command
FN:333,_RNvNtNtCs92oXZPd7plo_16cargo_quickstart4args5testss_19test_doctor_command
FN:345,_RNvNtNtCs92oXZPd7plo_16cargo_quickstart4args5testss_24test_completions_command
FN:321,_RNvNtNtCs92oXZPd7plo_16cargo_quickstart4args5testss_25test_list_templates_alias
FN:287,_RNvNtNtCs92oXZPd7plo_16cargo_quickstart4args5testss_25test_new_with_custom_path
FN:379,_RNvNtNtCs92oXZPd7plo_16cargo_quickstart4args5testss_27test_completions_all_shells
FN:310,_RNvNtNtCs92oXZPd7plo_16cargo_quickstart4args5testss_27test_list_templates_command
FN:402,_RNvNtNtCs92oXZPd7plo_16cargo_quickstart4args5testss_27test_validate_edition_valid
FN:431,_RNvNtNtCs92oXZPd7plo_16cargo_quickstart4args5testss_27test_validate_license_valid
FN:359,_RNvNtNtCs92oXZPd7plo_16cargo_quickstart4args5testss_28test_completions_with_output
FN:263,_RNvNtNtCs92oXZPd7plo_16cargo_quickstart4args5testss_28test_init_with_custom_values
FN:424,_RNvNtNtCs92oXZPd7plo_16cargo_quickstart4args5testss_29test_validate_edition_invalid
FN:449,_RNvNtNtCs92oXZPd7plo_16cargo_quickstart4args5testss_29test_validate_license_invalid
FNDA:0,_RNvNtCsj95mf2ixomG_16cargo_quickstart4args16validate_edition
FNDA:0,_RNvNtCsj95mf2ixomG_16cargo_quickstart4args16validate_license
FNDA:0,_RNvXNtCsj95mf2ixomG_16cargo_quickstart4argsNtB2_5ShellNtNtCs6FgkbHSHiEg_4core3fmt7Display3fmt
FNDA:13,_RNvNtCs92oXZPd7plo_16cargo_quickstart4args16validate_edition
FNDA:12,_RNvNtCs92oXZPd7plo_16cargo_quickstart4args16validate_license
FNDA:19,_RNvXNtCs92oXZPd7plo_16cargo_quickstart4argsNtB2_5ShellNtNtCs6FgkbHSHiEg_4core3fmt7Display3fmt
FNDA:1,_RNvNtNtCs92oXZPd7plo_16cargo_quickstart4args5testss_10verify_cli
FNDA:1,_RNvNtNtCs92oXZPd7plo_16cargo_quickstart4args5testss_16test_new_command
FNDA:1,_RNvNtNtCs92oXZPd7plo_16cargo_quickstart4args5testss_17test_init_command
FNDA:1,_RNvNtNtCs92oXZPd7plo_16cargo_quickstart4args5testss_19test_doctor_command
FNDA:1,_RNvNtNtCs92oXZPd7plo_16cargo_quickstart4args5testss_24test_completions_command
FNDA:1,_RNvNtNtCs92oXZPd7plo_16cargo_quickstart4args5testss_25test_list_templates_alias
FNDA:1,_RNvNtNtCs92oXZPd7plo_16cargo_quickstart4args5testss_25test_new_with_custom_path
FNDA:1,_RNvNtNtCs92oXZPd7plo_16cargo_quickstart4args5testss_27test_completions_all_shells
FNDA:1,_RNvNtNtCs92oXZPd7plo_16cargo_quickstart4args5testss_27test_list_templates_command
FNDA:1,_RNvNtNtCs92oXZPd7plo_16cargo_quickstart4args5testss_27test_validate_edition_valid
FNDA:1,_RNvNtNtCs92oXZPd7plo_16cargo_quickstart4args5testss_27test_validate_license_valid
FNDA:1,_RNvNtNtCs92oXZPd7plo_16cargo_quickstart4args5testss_28test_completions_with_output
FNDA:1,_RNvNtNtCs92oXZPd7plo_16cargo_quickstart4args5testss_28test_init_with_custom_values
FNDA:1,_RNvNtNtCs92oXZPd7plo_16cargo_quickstart4args5testss_29test_validate_edition_invalid
FNDA:1,_RNvNtNtCs92oXZPd7plo_16cargo_quickstart4args5testss_29test_validate_license_invalid
FNF:18
FNH:18
DA:198,19
DA:199,19
DA:200,6
DA:201,4
DA:202,3
DA:203,3
DA:204,3
DA:206,19
DA:207,19
DA:211,13
DA:212,13
DA:213,13
DA:214,3
DA:216,13
DA:219,12
DA:220,12
DA:221,12
DA:222,3
DA:224,12
DA:233,1
DA:235,1
DA:236,1
DA:239,1
DA:240,1
DA:241,1
DA:242,1
DA:243,1
DA:244,1
DA:246,0
DA:248,1
DA:251,1
DA:252,1
DA:253,1
DA:254,1
DA:255,1
DA:256,1
DA:258,0
DA:260,1
DA:263,1
DA:264,1
DA:265,1
DA:266,1
DA:267,1
DA:268,1
DA:269,1
DA:270,1
DA:271,1
DA:272,1
DA:273,1
DA:274,1
DA:276,1
DA:277,1
DA:278,1
DA:279,1
DA:280,1
DA:282,0
DA:284,1
DA:287,1
DA:288,1
DA:289,1
DA:290,1
DA:291,1
DA:292,1
DA:293,1
DA:294,1
DA:295,1
DA:296,1
DA:298,1
DA:299,1
DA:300,1
DA:301,1
DA:302,1
DA:303,1
DA:305,0
DA:307,1
DA:310,1
DA:311,1
DA:312,1
DA:313,1
DA:314,1
DA:315,1
DA:316,0
DA:318,1
DA:321,1
DA:322,1
DA:323,1
DA:324,1
DA:325,1
DA:326,1
DA:327,0
DA:329,1
DA:333,1
DA:334,1
DA:335,1
DA:336,1
DA:337,1
DA:338,1
DA:339,0
DA:341,1
DA:345,1
DA:346,1
DA:347,1
DA:348,1
DA:349,1
DA:350,1
DA:351,1
DA:353,0
DA:355,1
DA:359,1
DA:360,1
DA:361,1
DA:362,1
DA:363,1
DA:364,1
DA:365,1
DA:366,1
DA:367,1
DA:368,1
DA:369,1
DA:370,1
DA:371,1
DA:373,0
DA:375,1
DA:379,1
DA:381,1
DA:382,1
DA:383,1
DA:384,1
DA:385,1
DA:386,1
DA:389,6
DA:390,5
DA:391,5
DA:392,5
DA:393,5
DA:394,5
DA:396,0
DA:399,1
DA:402,1
DA:404,1
DA:405,1
DA:406,1
DA:407,1
DA:408,1
DA:409,1
DA:410,1
DA:411,1
DA:412,1
DA:413,1
DA:414,1
DA:415,1
DA:417,1
DA:418,1
DA:419,1
DA:420,1
DA:421,1
DA:424,1
DA:425,1
DA:426,1
DA:427,1
DA:428,1
DA:431,1
DA:433,1
DA:434,1
DA:435,1
DA:436,1
DA:437,1
DA:438,1
DA:439,1
DA:440,1
DA:441,1
DA:443,1
DA:444,1
DA:445,1
DA:446,1
DA:449,1
DA:450,1
DA:451,1
DA:452,1
DA:453,1
BRF:0
BRH:0
LF:180
LH:170
end_of_record
SF:/Users/smeya/git/cargo-quickstart/crates/quickstart-cli/src/commands/completions.rs
FN:43,_RNCNvNtNtCsj95mf2ixomG_16cargo_quickstart8commands11completions7execute0B7_
FN:23,_RNvNtNtCsj95mf2ixomG_16cargo_quickstart8commands11completions7execute
FN:23,_RNvNtNtCs92oXZPd7plo_16cargo_quickstart8commands11completions7execute
FN:78,_RNvNtNtNtCs92oXZPd7plo_16cargo_quickstart8commands11completions5testss_39test_execute_writes_completions_to_file
FN:113,_RNvNtNtNtCs92oXZPd7plo_16cargo_quickstart8commands11completions5testss_41test_execute_writes_completions_to_stdout
FN:43,_RNCNvNtNtCs92oXZPd7plo_16cargo_quickstart8commands11completions7execute0B7_
FN:92,_RNCNvNtNtNtCs92oXZPd7plo_16cargo_quickstart8commands11completions5testss_39test_execute_writes_completions_to_file0B9_
FN:103,_RNCNvNtNtNtCs92oXZPd7plo_16cargo_quickstart8commands11completions5testss_39test_execute_writes_completions_to_files_0B9_
FNDA:0,_RNCNvNtNtCsj95mf2ixomG_16cargo_quickstart8commands11completions7execute0B7_
FNDA:0,_RNvNtNtCsj95mf2ixomG_16cargo_quickstart8commands11completions7execute
FNDA:11,_RNvNtNtCs92oXZPd7plo_16cargo_quickstart8commands11completions7execute
FNDA:1,_RNvNtNtNtCs92oXZPd7plo_16cargo_quickstart8commands11completions5testss_39test_execute_writes_completions_to_file
FNDA:1,_RNvNtNtNtCs92oXZPd7plo_16cargo_quickstart8commands11completions5testss_41test_execute_writes_completions_to_stdout
FNDA:0,_RNCNvNtNtCs92oXZPd7plo_16cargo_quickstart8commands11completions7execute0B7_
FNDA:0,_RNCNvNtNtNtCs92oXZPd7plo_16cargo_quickstart8commands11completions5testss_39test_execute_writes_completions_to_file0B9_
FNDA:0,_RNCNvNtNtNtCs92oXZPd7plo_16cargo_quickstart8commands11completions5testss_39test_execute_writes_completions_to_files_0B9_
FNF:6
FNH:3
DA:23,11
DA:24,11
DA:25,11
DA:26,3
DA:27,2
DA:28,2
DA:29,2
DA:30,2
DA:34,11
DA:35,5
DA:37,6
DA:40,11
DA:41,5
DA:43,5
DA:44,0
DA:45,0
DA:47,5
DA:48,5
DA:50,5
DA:51,5
DA:52,5
DA:53,5
DA:54,5
DA:56,6
DA:57,6
DA:58,6
DA:59,6
DA:60,6
DA:61,6
DA:62,6
DA:63,6
DA:64,6
DA:66,11
DA:67,11
DA:78,1
DA:80,1
DA:81,0
DA:82,0
DA:83,1
DA:85,5
DA:86,1
DA:87,1
DA:88,1
DA:89,1
DA:90,1
DA:92,5
DA:93,0
DA:94,0
DA:95,5
DA:96,5
DA:97,5
DA:98,5
DA:99,5
DA:100,5
DA:101,5
DA:102,5
DA:103,5
DA:104,5
DA:105,5
DA:106,0
DA:109,1
DA:110,1
DA:113,1
DA:115,1
DA:116,0
DA:117,0
DA:118,1
DA:120,5
DA:121,1
DA:122,1
DA:123,1
DA:124,1
DA:125,1
DA:127,5
DA:128,5
DA:129,5
DA:130,5
DA:131,5
DA:132,5
DA:133,5
DA:134,0
DA:137,1
DA:138,1
BRF:0
BRH:0
LF:88
LH:73
end_of_record
SF:/Users/smeya/git/cargo-quickstart/crates/quickstart-cli/src/commands/doctor/checks/dependencies.rs
FN:90,_RNvXs1_NtNtNtNtCsj95mf2ixomG_16cargo_quickstart8commands6doctor6checks12dependenciesNtB5_17DependenciesCheckNtNtNtCs6FgkbHSHiEg_4core3ops4drop4Drop4drop
FN:224,_RNvXs3_NtNtNtNtCsj95mf2ixomG_16cargo_quickstart8commands6doctor6checks12dependenciesNtB5_17DependenciesCheckNtNtB9_9diagnosis5Check11description
FN:31,_RNvMNtNtNtNtCsj95mf2ixomG_16cargo_quickstart8commands6doctor6checks12dependenciesNtB2_19RealCommandExecutor3new
FN:152,_RNvMs2_NtNtNtNtCsj95mf2ixomG_16cargo_quickstart8commands6doctor6checks12dependenciesNtB5_17DependenciesCheck12check_unused
FN:110,_RNvMs2_NtNtNtNtCsj95mf2ixomG_16cargo_quickstart8commands6doctor6checks12dependenciesNtB5_17DependenciesCheck14check_outdated
FN:199,_RNvMs2_NtNtNtNtCsj95mf2ixomG_16cargo_quickstart8commands6doctor6checks12dependenciesNtB5_17DependenciesCheck25check_dependency_versions
FN:97,_RNvMs2_NtNtNtNtCsj95mf2ixomG_16cargo_quickstart8commands6doctor6checks12dependenciesNtB5_17DependenciesCheck3new
FN:70,_RNvXs0_NtNtNtNtCsj95mf2ixomG_16cargo_quickstart8commands6doctor6checks12dependenciesNtB5_19RealCommandExecutorNtB5_15CommandExecutor13execute_udeps
FN:61,_RNvXs0_NtNtNtNtCsj95mf2ixomG_16cargo_quickstart8commands6doctor6checks12dependenciesNtB5_19RealCommandExecutorNtB5_15CommandExecutor16execute_outdated
FN:79,_RNvXs0_NtNtNtNtCsj95mf2ixomG_16cargo_quickstart8commands6doctor6checks12dependenciesNtB5_19RealCommandExecutorNtB5_15CommandExecutor20is_command_available
FN:212,_RNvXs3_NtNtNtNtCsj95mf2ixomG_16cargo_quickstart8commands6doctor6checks12dependenciesNtB5_17DependenciesCheckNtNtB9_9diagnosis5Check3run
FN:220,_RNvXs3_NtNtNtNtCsj95mf2ixomG_16cargo_quickstart8commands6doctor6checks12dependenciesNtB5_17DependenciesCheckNtNtB9_9diagnosis5Check4name
FN:228,_RNvXs3_NtNtNtNtCsj95mf2ixomG_16cargo_quickstart8commands6doctor6checks12dependenciesNtB5_17DependenciesCheckNtNtB9_9diagnosis5Check8category
FN:39,_RNvXs_NtNtNtNtCsj95mf2ixomG_16cargo_quickstart8commands6doctor6checks12dependenciesNtB4_19RealCommandExecutorNtNtNtCs6FgkbHSHiEg_4core3ops4drop4Drop4drop
FN:435,_RNCNvNtNtNtNtNtCs92oXZPd7plo_16cargo_quickstart8commands6doctor6checks12dependencies5testss_24test_udeps_command_errors_0Bd_
FN:391,_RNCNvNtNtNtNtNtCs92oXZPd7plo_16cargo_quickstart8commands6doctor6checks12dependencies5testss_26test_udeps_command_failures_0Bd_
FN:370,_RNCNvNtNtNtNtNtCs92oXZPd7plo_16cargo_quickstart8commands6doctor6checks12dependencies5testss_26test_udeps_command_successs_0Bd_
FN:412,_RNCNvNtNtNtNtNtCs92oXZPd7plo_16cargo_quickstart8commands6doctor6checks12dependencies5testss_27test_outdated_command_errors_0Bd_
FN:458,_RNCNvNtNtNtNtNtCs92oXZPd7plo_16cargo_quickstart8commands6doctor6checks12dependencies5testss_28test_run_returns_diagnosticss_0Bd_
FN:347,_RNCNvNtNtNtNtNtCs92oXZPd7plo_16cargo_quickstart8commands6doctor6checks12dependencies5testss_29test_outdated_command_failures_0Bd_
FN:326,_RNCNvNtNtNtNtNtCs92oXZPd7plo_16cargo_quickstart8commands6doctor6checks12dependencies5testss_29test_outdated_command_successs_0Bd_
FN:286,_RNCNvNtNtNtNtNtCs92oXZPd7plo_16cargo_quickstart8commands6doctor6checks12dependencies5testss_35test_outdated_command_not_available0Bd_
FN:105,_RNvMs2_NtNtNtNtCs92oXZPd7plo_16cargo_quickstart8commands6doctor6checks12dependenciesNtB5_17DependenciesCheck13with_executor
FN:247,_RNvNtNtNtNtNtCs92oXZPd7plo_16cargo_quickstart8commands6doctor6checks12dependencies5tests14failure_output
FN:239,_RNvNtNtNtNtNtCs92oXZPd7plo_16cargo_quickstart8commands6doctor6checks12dependencies5tests14success_output
FN:256,_RNvNtNtNtNtNtCs92oXZPd7plo_16cargo_quickstart8commands6doctor6checks12dependencies5testss_16test_name_method
FN:271,_RNvNtNtNtNtNtCs92oXZPd7plo_16cargo_quickstart8commands6doctor6checks12dependencies5testss_20test_category_method
FN:262,_RNvNtNtNtNtNtCs92oXZPd7plo_16cargo_quickstart8commands6doctor6checks12dependencies5testss_23test_description_method
FN:424,_RNvNtNtNtNtNtCs92oXZPd7plo_16cargo_quickstart8commands6doctor6checks12dependencies5testss_24test_udeps_command_error
FN:380,_RNvNtNtNtNtNtCs92oXZPd7plo_16cargo_quickstart8commands6doctor6checks12dependencies5testss_26test_udeps_command_failure
FN:359,_RNvNtNtNtNtNtCs92oXZPd7plo_16cargo_quickstart8commands6doctor6checks12dependencies5testss_26test_udeps_command_success
FN:401,_RNvNtNtNtNtNtCs92oXZPd7plo_16cargo_quickstart8commands6doctor6checks12dependencies5testss_27test_outdated_command_error
FN:447,_RNvNtNtNtNtNtCs92oXZPd7plo_16cargo_quickstart8commands6doctor6checks12dependencies5testss_28test_run_returns_diagnostics
FN:336,_RNvNtNtNtNtNtCs92oXZPd7plo_16cargo_quickstart8commands6doctor6checks12dependencies5testss_29test_outdated_command_failure
FN:315,_RNvNtNtNtNtNtCs92oXZPd7plo_16cargo_quickstart8commands6doctor6checks12dependencies5testss_29test_outdated_command_success
FN:296,_RNvNtNtNtNtNtCs92oXZPd7plo_16cargo_quickstart8commands6doctor6checks12dependencies5testss_32test_udeps_command_not_available
FN:277,_RNvNtNtNtNtNtCs92oXZPd7plo_16cargo_quickstart8commands6doctor6checks12dependencies5testss_35test_outdated_command_not_available
FN:90,_RNvXs1_NtNtNtNtCs92oXZPd7plo_16cargo_quickstart8commands6doctor6checks12dependenciesNtB5_17DependenciesCheckNtNtNtCs6FgkbHSHiEg_4core3ops4drop4Drop4drop
FN:224,_RNvXs3_NtNtNtNtCs92oXZPd7plo_16cargo_quickstart8commands6doctor6checks12dependenciesNtB5_17DependenciesCheckNtNtB9_9diagnosis5Check11description
FN:430,_RNCNvNtNtNtNtNtCs92oXZPd7plo_16cargo_quickstart8commands6doctor6checks12dependencies5testss_24test_udeps_command_error0Bd_
FN:386,_RNCNvNtNtNtNtNtCs92oXZPd7plo_16cargo_quickstart8commands6doctor6checks12dependencies5testss_26test_udeps_command_failure0Bd_
FN:365,_RNCNvNtNtNtNtNtCs92oXZPd7plo_16cargo_quickstart8commands6doctor6checks12dependencies5testss_26test_udeps_command_success0Bd_
FN:407,_RNCNvNtNtNtNtNtCs92oXZPd7plo_16cargo_quickstart8commands6doctor6checks12dependencies5testss_27test_outdated_command_error0Bd_
FN:453,_RNCNvNtNtNtNtNtCs92oXZPd7plo_16cargo_quickstart8commands6doctor6checks12dependencies5testss_28test_run_returns_diagnostics0Bd_
FN:342,_RNCNvNtNtNtNtNtCs92oXZPd7plo_16cargo_quickstart8commands6doctor6checks12dependencies5testss_29test_outdated_command_failure0Bd_
FN:321,_RNCNvNtNtNtNtNtCs92oXZPd7plo_16cargo_quickstart8commands6doctor6checks12dependencies5testss_29test_outdated_command_success0Bd_
FN:302,_RNCNvNtNtNtNtNtCs92oXZPd7plo_16cargo_quickstart8commands6doctor6checks12dependencies5testss_32test_udeps_command_not_available0Bd_
FN:31,_RNvMNtNtNtNtCs92oXZPd7plo_16cargo_quickstart8commands6doctor6checks12dependenciesNtB2_19RealCommandExecutor3new
FN:152,_RNvMs2_NtNtNtNtCs92oXZPd7plo_16cargo_quickstart8commands6doctor6checks12dependenciesNtB5_17DependenciesCheck12check_unused
FN:110,_RNvMs2_NtNtNtNtCs92oXZPd7plo_16cargo_quickstart8commands6doctor6checks12dependenciesNtB5_17DependenciesCheck14check_outdated
FN:199,_RNvMs2_NtNtNtNtCs92oXZPd7plo_16cargo_quickstart8commands6doctor6checks12dependenciesNtB5_17DependenciesCheck25check_dependency_versions
FN:97,_RNvMs2_NtNtNtNtCs92oXZPd7plo_16cargo_quickstart8commands6doctor6checks12dependenciesNtB5_17DependenciesCheck3new
FN:70,_RNvXs0_NtNtNtNtCs92oXZPd7plo_16cargo_quickstart8commands6doctor6checks12dependenciesNtB5_19RealCommandExecutorNtB5_15CommandExecutor13execute_udeps
FN:61,_RNvXs0_NtNtNtNtCs92oXZPd7plo_16cargo_quickstart8commands6doctor6checks12dependenciesNtB5_19RealCommandExecutorNtB5_15CommandExecutor16execute_outdated
FN:79,_RNvXs0_NtNtNtNtCs92oXZPd7plo_16cargo_quickstart8commands6doctor6checks12dependenciesNtB5_19RealCommandExecutorNtB5_15CommandExecutor20is_command_available
FN:212,_RNvXs3_NtNtNtNtCs92oXZPd7plo_16cargo_quickstart8commands6doctor6checks12dependenciesNtB5_17DependenciesCheckNtNtB9_9diagnosis5Check3run
FN:220,_RNvXs3_NtNtNtNtCs92oXZPd7plo_16cargo_quickstart8commands6doctor6checks12dependenciesNtB5_17DependenciesCheckNtNtB9_9diagnosis5Check4name
FN:228,_RNvXs3_NtNtNtNtCs92oXZPd7plo_16cargo_quickstart8commands6doctor6checks12dependenciesNtB5_17DependenciesCheckNtNtB9_9diagnosis5Check8category
FN:39,_RNvXs_NtNtNtNtCs92oXZPd7plo_16cargo_quickstart8commands6doctor6checks12dependenciesNtB4_19RealCommandExecutorNtNtNtCs6FgkbHSHiEg_4core3ops4drop4Drop4drop
FNDA:5,_RNvXs1_NtNtNtNtCsj95mf2ixomG_16cargo_quickstart8commands6doctor6checks12dependenciesNtB5_17DependenciesCheckNtNtNtCs6FgkbHSHiEg_4core3ops4drop4Drop4drop
FNDA:5,_RNvXs3_NtNtNtNtCsj95mf2ixomG_16cargo_quickstart8commands6doctor6checks12dependenciesNtB5_17DependenciesCheckNtNtB9_9diagnosis5Check11description
FNDA:5,_RNvMNtNtNtNtCsj95mf2ixomG_16cargo_quickstart8commands6doctor6checks12dependenciesNtB2_19RealCommandExecutor3new
FNDA:5,_RNvMs2_NtNtNtNtCsj95mf2ixomG_16cargo_quickstart8commands6doctor6checks12dependenciesNtB5_17DependenciesCheck12check_unused
FNDA:5,_RNvMs2_NtNtNtNtCsj95mf2ixomG_16cargo_quickstart8commands6doctor6checks12dependenciesNtB5_17DependenciesCheck14check_outdated
FNDA:5,_RNvMs2_NtNtNtNtCsj95mf2ixomG_16cargo_quickstart8commands6doctor6checks12dependenciesNtB5_17DependenciesCheck25check_dependency_versions
FNDA:5,_RNvMs2_NtNtNtNtCsj95mf2ixomG_16cargo_quickstart8commands6doctor6checks12dependenciesNtB5_17DependenciesCheck3new
FNDA:5,_RNvXs0_NtNtNtNtCsj95mf2ixomG_16cargo_quickstart8commands6doctor6checks12dependenciesNtB5_19RealCommandExecutorNtB5_15CommandExecutor13execute_udeps
FNDA:5,_RNvXs0_NtNtNtNtCsj95mf2ixomG_16cargo_quickstart8commands6doctor6checks12dependenciesNtB5_19RealCommandExecutorNtB5_15CommandExecutor16execute_outdated
FNDA:10,_RNvXs0_NtNtNtNtCsj95mf2ixomG_16cargo_quickstart8commands6doctor6checks12dependenciesNtB5_19RealCommandExecutorNtB5_15CommandExecutor20is_command_available
FNDA:5,_RNvXs3_NtNtNtNtCsj95mf2ixomG_16cargo_quickstart8commands6doctor6checks12dependenciesNtB5_17DependenciesCheckNtNtB9_9diagnosis5Check3run
FNDA:20,_RNvXs3_NtNtNtNtCsj95mf2ixomG_16cargo_quickstart8commands6doctor6checks12dependenciesNtB5_17DependenciesCheckNtNtB9_9diagnosis5Check4name
FNDA:20,_RNvXs3_NtNtNtNtCsj95mf2ixomG_16cargo_quickstart8commands6doctor6checks12dependenciesNtB5_17DependenciesCheckNtNtB9_9diagnosis5Check8category
FNDA:5,_RNvXs_NtNtNtNtCsj95mf2ixomG_16cargo_quickstart8commands6doctor6checks12dependenciesNtB4_19RealCommandExecutorNtNtNtCs6FgkbHSHiEg_4core3ops4drop4Drop4drop
FNDA:1,_RNCNvNtNtNtNtNtCs92oXZPd7plo_16cargo_quickstart8commands6doctor6checks12dependencies5testss_24test_udeps_command_errors_0Bd_
FNDA:1,_RNCNvNtNtNtNtNtCs92oXZPd7plo_16cargo_quickstart8commands6doctor6checks12dependencies5testss_26test_udeps_command_failures_0Bd_
FNDA:1,_RNCNvNtNtNtNtNtCs92oXZPd7plo_16cargo_quickstart8commands6doctor6checks12dependencies5testss_26test_udeps_command_successs_0Bd_
FNDA:1,_RNCNvNtNtNtNtNtCs92oXZPd7plo_16cargo_quickstart8commands6doctor6checks12dependencies5testss_27test_outdated_command_errors_0Bd_
FNDA:1,_RNCNvNtNtNtNtNtCs92oXZPd7plo_16cargo_quickstart8commands6doctor6checks12dependencies5testss_28test_run_returns_diagnosticss_0Bd_
FNDA:1,_RNCNvNtNtNtNtNtCs92oXZPd7plo_16cargo_quickstart8commands6doctor6checks12dependencies5testss_29test_outdated_command_failures_0Bd_
FNDA:1,_RNCNvNtNtNtNtNtCs92oXZPd7plo_16cargo_quickstart8commands6doctor6checks12dependencies5testss_29test_outdated_command_successs_0Bd_
FNDA:1,_RNCNvNtNtNtNtNtCs92oXZPd7plo_16cargo_quickstart8commands6doctor6checks12dependencies5testss_35test_outdated_command_not_available0Bd_
FNDA:9,_RNvMs2_NtNtNtNtCs92oXZPd7plo_16cargo_quickstart8commands6doctor6checks12dependenciesNtB5_17DependenciesCheck13with_executor
FNDA:2,_RNvNtNtNtNtNtCs92oXZPd7plo_16cargo_quickstart8commands6doctor6checks12dependencies5tests14failure_output
FNDA:12,_RNvNtNtNtNtNtCs92oXZPd7plo_16cargo_quickstart8commands6doctor6checks12dependencies5tests14success_output
FNDA:1,_RNvNtNtNtNtNtCs92oXZPd7plo_16cargo_quickstart8commands6doctor6checks12dependencies5testss_16test_name_method
FNDA:1,_RNvNtNtNtNtNtCs92oXZPd7plo_16cargo_quickstart8commands6doctor6checks12dependencies5testss_20test_category_method
FNDA:1,_RNvNtNtNtNtNtCs92oXZPd7plo_16cargo_quickstart8commands6doctor6checks12dependencies5testss_23test_description_method
FNDA:1,_RNvNtNtNtNtNtCs92oXZPd7plo_16cargo_quickstart8commands6doctor6checks12dependencies5testss_24test_udeps_command_error
FNDA:1,_RNvNtNtNtNtNtCs92oXZPd7plo_16cargo_quickstart8commands6doctor6checks12dependencies5testss_26test_udeps_command_failure
FNDA:1,_RNvNtNtNtNtNtCs92oXZPd7plo_16cargo_quickstart8commands6doctor6checks12dependencies5testss_26test_udeps_command_success
FNDA:1,_RNvNtNtNtNtNtCs92oXZPd7plo_16cargo_quickstart8commands6doctor6checks12dependencies5testss_27test_outdated_command_error
FNDA:1,_RNvNtNtNtNtNtCs92oXZPd7plo_16cargo_quickstart8commands6doctor6checks12dependencies5testss_28test_run_returns_diagnostics
FNDA:1,_RNvNtNtNtNtNtCs92oXZPd7plo_16cargo_quickstart8commands6doctor6checks12dependencies5testss_29test_outdated_command_failure
FNDA:1,_RNvNtNtNtNtNtCs92oXZPd7plo_16cargo_quickstart8commands6doctor6checks12dependencies5testss_29test_outdated_command_success
FNDA:1,_RNvNtNtNtNtNtCs92oXZPd7plo_16cargo_quickstart8commands6doctor6checks12dependencies5testss_32test_udeps_command_not_available
FNDA:1,_RNvNtNtNtNtNtCs92oXZPd7plo_16cargo_quickstart8commands6doctor6checks12dependencies5testss_35test_outdated_command_not_available
FNDA:15,_RNvXs1_NtNtNtNtCs92oXZPd7plo_16cargo_quickstart8commands6doctor6checks12dependenciesNtB5_17DependenciesCheckNtNtNtCs6FgkbHSHiEg_4core3ops4drop4Drop4drop
FNDA:3,_RNvXs3_NtNtNtNtCs92oXZPd7plo_16cargo_quickstart8commands6doctor6checks12dependenciesNtB5_17DependenciesCheckNtNtB9_9diagnosis5Check11description
FNDA:1,_RNCNvNtNtNtNtNtCs92oXZPd7plo_16cargo_quickstart8commands6doctor6checks12dependencies5testss_24test_udeps_command_error0Bd_
FNDA:1,_RNCNvNtNtNtNtNtCs92oXZPd7plo_16cargo_quickstart8commands6doctor6checks12dependencies5testss_26test_udeps_command_failure0Bd_
FNDA:1,_RNCNvNtNtNtNtNtCs92oXZPd7plo_16cargo_quickstart8commands6doctor6checks12dependencies5testss_26test_udeps_command_success0Bd_
FNDA:1,_RNCNvNtNtNtNtNtCs92oXZPd7plo_16cargo_quickstart8commands6doctor6checks12dependencies5testss_27test_outdated_command_error0Bd_
FNDA:1,_RNCNvNtNtNtNtNtCs92oXZPd7plo_16cargo_quickstart8commands6doctor6checks12dependencies5testss_28test_run_returns_diagnostics0Bd_
FNDA:1,_RNCNvNtNtNtNtNtCs92oXZPd7plo_16cargo_quickstart8commands6doctor6checks12dependencies5testss_29test_outdated_command_failure0Bd_
FNDA:1,_RNCNvNtNtNtNtNtCs92oXZPd7plo_16cargo_quickstart8commands6doctor6checks12dependencies5testss_29test_outdated_command_success0Bd_
FNDA:1,_RNCNvNtNtNtNtNtCs92oXZPd7plo_16cargo_quickstart8commands6doctor6checks12dependencies5testss_32test_udeps_command_not_available0Bd_
FNDA:6,_RNvMNtNtNtNtCs92oXZPd7plo_16cargo_quickstart8commands6doctor6checks12dependenciesNtB2_19RealCommandExecutor3new
FNDA:11,_RNvMs2_NtNtNtNtCs92oXZPd7plo_16cargo_quickstart8commands6doctor6checks12dependenciesNtB5_17DependenciesCheck12check_unused
FNDA:11,_RNvMs2_NtNtNtNtCs92oXZPd7plo_16cargo_quickstart8commands6doctor6checks12dependenciesNtB5_17DependenciesCheck14check_outdated
FNDA:11,_RNvMs2_NtNtNtNtCs92oXZPd7plo_16cargo_quickstart8commands6doctor6checks12dependenciesNtB5_17DependenciesCheck25check_dependency_versions
FNDA:6,_RNvMs2_NtNtNtNtCs92oXZPd7plo_16cargo_quickstart8commands6doctor6checks12dependenciesNtB5_17DependenciesCheck3new
FNDA:2,_RNvXs0_NtNtNtNtCs92oXZPd7plo_16cargo_quickstart8commands6doctor6checks12dependenciesNtB5_19RealCommandExecutorNtB5_15CommandExecutor13execute_udeps
FNDA:2,_RNvXs0_NtNtNtNtCs92oXZPd7plo_16cargo_quickstart8commands6doctor6checks12dependenciesNtB5_19RealCommandExecutorNtB5_15CommandExecutor16execute_outdated
FNDA:4,_RNvXs0_NtNtNtNtCs92oXZPd7plo_16cargo_quickstart8commands6doctor6checks12dependenciesNtB5_19RealCommandExecutorNtB5_15CommandExecutor20is_command_available
FNDA:11,_RNvXs3_NtNtNtNtCs92oXZPd7plo_16cargo_quickstart8commands6doctor6checks12dependenciesNtB5_17DependenciesCheckNtNtB9_9diagnosis5Check3run
FNDA:36,_RNvXs3_NtNtNtNtCs92oXZPd7plo_16cargo_quickstart8commands6doctor6checks12dependenciesNtB5_17DependenciesCheckNtNtB9_9diagnosis5Check4name
FNDA:36,_RNvXs3_NtNtNtNtCs92oXZPd7plo_16cargo_quickstart8commands6doctor6checks12dependenciesNtB5_17DependenciesCheckNtNtB9_9diagnosis5Check8category
FNDA:6,_RNvXs_NtNtNtNtCs92oXZPd7plo_16cargo_quickstart8commands6doctor6checks12dependenciesNtB4_19RealCommandExecutorNtNtNtCs6FgkbHSHiEg_4core3ops4drop4Drop4drop
FNF:45
FNH:45
DA:31,11
DA:32,11
DA:33,11
DA:34,11
DA:35,11
DA:39,11
DA:40,11
DA:42,0
DA:43,0
DA:44,0
DA:45,0
DA:46,0
DA:47,0
DA:48,0
DA:49,0
DA:50,0
DA:51,0
DA:52,0
DA:53,0
DA:55,0
DA:56,11
DA:57,11
DA:61,7
DA:62,7
DA:63,7
DA:64,7
DA:65,7
DA:66,7
DA:67,7
DA:68,7
DA:70,7
DA:71,7
DA:72,7
DA:73,7
DA:74,7
DA:75,7
DA:76,7
DA:77,7
DA:79,14
DA:80,14
DA:81,14
DA:90,20
DA:92,20
DA:97,11
DA:98,11
DA:99,11
DA:100,11
DA:101,11
DA:105,9
DA:106,9
DA:107,9
DA:110,16
DA:112,16
DA:113,1
DA:114,1
DA:115,1
DA:117,1
DA:119,1
DA:120,15
DA:122,15
DA:123,14
DA:124,14
DA:125,12
DA:126,12
DA:127,12
DA:129,12
DA:132,2
DA:133,2
DA:134,2
DA:136,2
DA:138,2
DA:141,1
DA:142,1
DA:143,1
DA:145,1
DA:147,1
DA:149,16
DA:152,16
DA:154,16
DA:155,1
DA:156,1
DA:157,1
DA:159,1
DA:161,1
DA:162,15
DA:164,15
DA:165,14
DA:166,14
DA:167,6
DA:168,6
DA:169,6
DA:171,6
DA:175,8
DA:176,8
DA:177,8
DA:178,8
DA:180,8
DA:182,8
DA:183,8
DA:188,1
DA:189,1
DA:190,1
DA:192,1
DA:194,1
DA:196,16
DA:199,16
DA:202,16
DA:203,16
DA:204,16
DA:206,16
DA:208,16
DA:212,16
DA:213,16
DA:214,16
DA:215,16
DA:216,16
DA:218,16
DA:220,56
DA:221,56
DA:222,56
DA:224,8
DA:225,8
DA:226,8
DA:228,56
DA:229,56
DA:230,56
DA:239,12
DA:240,12
DA:241,12
DA:242,12
DA:243,12
DA:244,12
DA:245,12
DA:247,2
DA:248,2
DA:249,2
DA:250,2
DA:251,2
DA:252,2
DA:253,2
DA:256,1
DA:257,1
DA:258,1
DA:259,1
DA:262,1
DA:263,1
DA:264,1
DA:265,1
DA:268,1
DA:271,1
DA:272,1
DA:273,1
DA:274,1
DA:277,1
DA:278,1
DA:279,1
DA:280,1
DA:281,1
DA:282,1
DA:283,1
DA:284,1
DA:285,1
DA:286,1
DA:288,1
DA:289,1
DA:291,1
DA:292,1
DA:293,1
DA:296,1
DA:297,1
DA:298,1
DA:299,1
DA:300,1
DA:301,1
DA:302,1
DA:303,1
DA:304,1
DA:305,1
DA:307,1
DA:308,1
DA:310,1
DA:311,1
DA:312,1
DA:315,1
DA:316,1
DA:317,1
DA:318,1
DA:319,1
DA:320,1
DA:321,1
DA:322,1
DA:323,1
DA:324,1
DA:325,1
DA:326,1
DA:328,1
DA:329,1
DA:331,1
DA:332,1
DA:333,1
DA:336,1
DA:337,1
DA:338,1
DA:339,1
DA:340,1
DA:341,1
DA:342,1
DA:343,1
DA:344,1
DA:345,1
DA:346,1
DA:347,1
DA:349,1
DA:350,1
DA:352,1
DA:353,1
DA:354,1
DA:355,1
DA:356,1
DA:359,1
DA:360,1
DA:361,1
DA:362,1
DA:363,1
DA:364,1
DA:365,1
DA:366,1
DA:367,1
DA:368,1
DA:369,1
DA:370,1
DA:372,1
DA:373,1
DA:375,1
DA:376,1
DA:377,1
DA:380,1
DA:381,1
DA:382,1
DA:383,1
DA:384,1
DA:385,1
DA:386,1
DA:387,1
DA:388,1
DA:389,1
DA:390,1
DA:391,1
DA:393,1
DA:394,1
DA:396,1
DA:397,1
DA:398,1
DA:401,1
DA:402,1
DA:403,1
DA:404,1
DA:405,1
DA:406,1
DA:407,1
DA:408,1
DA:409,1
DA:410,1
DA:411,1
DA:412,1
DA:414,1
DA:415,1
DA:417,1
DA:418,1
DA:419,1
DA:420,1
DA:421,1
DA:424,1
DA:425,1
DA:426,1
DA:427,1
DA:428,1
DA:429,1
DA:430,1
DA:431,1
DA:432,1
DA:433,1
DA:434,1
DA:435,1
DA:437,1
DA:438,1
DA:440,1
DA:441,1
DA:442,1
DA:443,1
DA:444,1
DA:447,1
DA:448,1
DA:449,1
DA:450,1
DA:451,1
DA:452,1
DA:453,1
DA:454,1
DA:455,1
DA:456,1
DA:457,1
DA:458,1
DA:460,1
DA:461,1
DA:462,1
DA:463,1
BRF:0
BRH:0
LF:323
LH:310
end_of_record
SF:/Users/smeya/git/cargo-quickstart/crates/quickstart-cli/src/commands/doctor/checks/files.rs
FN:36,_RNCNvXs_NtNtNtNtCsj95mf2ixomG_16cargo_quickstart8commands6doctor6checks5filesNtB6_10FilesCheckNtNtBa_9diagnosis5Check3run0Be_
FN:14,_RNvMNtNtNtNtCsj95mf2ixomG_16cargo_quickstart8commands6doctor6checks5filesNtB2_10FilesCheck3new
FN:71,_RNvXs_NtNtNtNtCsj95mf2ixomG_16cargo_quickstart8commands6doctor6checks5filesNtB4_10FilesCheckNtNtB8_9diagnosis5Check11description
FN:20,_RNvXs_NtNtNtNtCsj95mf2ixomG_16cargo_quickstart8commands6doctor6checks5filesNtB4_10FilesCheckNtNtB8_9diagnosis5Check3run
FN:75,_RNvXs_NtNtNtNtCsj95mf2ixomG_16cargo_quickstart8commands6doctor6checks5filesNtB4_10FilesCheckNtNtB8_9diagnosis5Check8category
FN:67,_RNvXs_NtNtNtNtCsj95mf2ixomG_16cargo_quickstart8commands6doctor6checks5filesNtB4_10FilesCheckNtNtB8_9diagnosis5Check4name
FN:36,_RNCNvXs_NtNtNtNtCs92oXZPd7plo_16cargo_quickstart8commands6doctor6checks5filesNtB6_10FilesCheckNtNtBa_9diagnosis5Check3run0Be_
FN:67,_RNvXs_NtNtNtNtCs92oXZPd7plo_16cargo_quickstart8commands6doctor6checks5filesNtB4_10FilesCheckNtNtB8_9diagnosis5Check4name
FN:71,_RNvXs_NtNtNtNtCs92oXZPd7plo_16cargo_quickstart8commands6doctor6checks5filesNtB4_10FilesCheckNtNtB8_9diagnosis5Check11description
FN:75,_RNvXs_NtNtNtNtCs92oXZPd7plo_16cargo_quickstart8commands6doctor6checks5filesNtB4_10FilesCheckNtNtB8_9diagnosis5Check8category
FN:141,_RNCNvNtNtNtNtNtCs92oXZPd7plo_16cargo_quickstart8commands6doctor6checks5files5testss_22test_all_files_missing0Bd_
FN:120,_RNCNvNtNtNtNtNtCs92oXZPd7plo_16cargo_quickstart8commands6doctor6checks5files5testss_22test_all_files_present0Bd_
FN:165,_RNCNvNtNtNtNtNtCs92oXZPd7plo_16cargo_quickstart8commands6doctor6checks5files5testss_23test_some_files_missing0Bd_
FN:174,_RNCNvNtNtNtNtNtCs92oXZPd7plo_16cargo_quickstart8commands6doctor6checks5files5testss_23test_some_files_missings0_0Bd_
FN:175,_RNCNvNtNtNtNtNtCs92oXZPd7plo_16cargo_quickstart8commands6doctor6checks5files5testss_23test_some_files_missings1_0Bd_
FN:183,_RNCNvNtNtNtNtNtCs92oXZPd7plo_16cargo_quickstart8commands6doctor6checks5files5testss_23test_some_files_missings2_0Bd_
FN:184,_RNCNvNtNtNtNtNtCs92oXZPd7plo_16cargo_quickstart8commands6doctor6checks5files5testss_23test_some_files_missings3_0Bd_
FN:192,_RNCNvNtNtNtNtNtCs92oXZPd7plo_16cargo_quickstart8commands6doctor6checks5files5testss_23test_some_files_missings4_0Bd_
FN:193,_RNCNvNtNtNtNtNtCs92oXZPd7plo_16cargo_quickstart8commands6doctor6checks5files5testss_23test_some_files_missings5_0Bd_
FN:166,_RNCNvNtNtNtNtNtCs92oXZPd7plo_16cargo_quickstart8commands6doctor6checks5files5testss_23test_some_files_missings_0Bd_
FN:89,_RNvNtNtNtNtNtCs92oXZPd7plo_16cargo_quickstart8commands6doctor6checks5files5tests14setup_test_dir
FN:125,_RNvNtNtNtNtNtCs92oXZPd7plo_16cargo_quickstart8commands6doctor6checks5files5testss_22test_all_files_missing
FN:106,_RNvNtNtNtNtNtCs92oXZPd7plo_16cargo_quickstart8commands6doctor6checks5files5testss_22test_all_files_present
FN:146,_RNvNtNtNtNtNtCs92oXZPd7plo_16cargo_quickstart8commands6doctor6checks5files5testss_23test_some_files_missing
FN:14,_RNvMNtNtNtNtCs92oXZPd7plo_16cargo_quickstart8commands6doctor6checks5filesNtB2_10FilesCheck3new
FN:20,_RNvXs_NtNtNtNtCs92oXZPd7plo_16cargo_quickstart8commands6doctor6checks5filesNtB4_10FilesCheckNtNtB8_9diagnosis5Check3run
FNDA:20,_RNCNvXs_NtNtNtNtCsj95mf2ixomG_16cargo_quickstart8commands6doctor6checks5filesNtB6_10FilesCheckNtNtBa_9diagnosis5Check3run0Be_
FNDA:5,_RNvMNtNtNtNtCsj95mf2ixomG_16cargo_quickstart8commands6doctor6checks5filesNtB2_10FilesCheck3new
FNDA:5,_RNvXs_NtNtNtNtCsj95mf2ixomG_16cargo_quickstart8commands6doctor6checks5filesNtB4_10FilesCheckNtNtB8_9diagnosis5Check11description
FNDA:5,_RNvXs_NtNtNtNtCsj95mf2ixomG_16cargo_quickstart8commands6doctor6checks5filesNtB4_10FilesCheckNtNtB8_9diagnosis5Check3run
FNDA:5,_RNvXs_NtNtNtNtCsj95mf2ixomG_16cargo_quickstart8commands6doctor6checks5filesNtB4_10FilesCheckNtNtB8_9diagnosis5Check8category
FNDA:25,_RNvXs_NtNtNtNtCsj95mf2ixomG_16cargo_quickstart8commands6doctor6checks5filesNtB4_10FilesCheckNtNtB8_9diagnosis5Check4name
FNDA:20,_RNCNvXs_NtNtNtNtCs92oXZPd7plo_16cargo_quickstart8commands6doctor6checks5filesNtB6_10FilesCheckNtNtBa_9diagnosis5Check3run0Be_
FNDA:22,_RNvXs_NtNtNtNtCs92oXZPd7plo_16cargo_quickstart8commands6doctor6checks5filesNtB4_10FilesCheckNtNtB8_9diagnosis5Check4name
FNDA:2,_RNvXs_NtNtNtNtCs92oXZPd7plo_16cargo_quickstart8commands6doctor6checks5filesNtB4_10FilesCheckNtNtB8_9diagnosis5Check11description
FNDA:2,_RNvXs_NtNtNtNtCs92oXZPd7plo_16cargo_quickstart8commands6doctor6checks5filesNtB4_10FilesCheckNtNtB8_9diagnosis5Check8category
FNDA:3,_RNCNvNtNtNtNtNtCs92oXZPd7plo_16cargo_quickstart8commands6doctor6checks5files5testss_22test_all_files_missing0Bd_
FNDA:4,_RNCNvNtNtNtNtNtCs92oXZPd7plo_16cargo_quickstart8commands6doctor6checks5files5testss_22test_all_files_present0Bd_
FNDA:1,_RNCNvNtNtNtNtNtCs92oXZPd7plo_16cargo_quickstart8commands6doctor6checks5files5testss_23test_some_files_missing0Bd_
FNDA:2,_RNCNvNtNtNtNtNtCs92oXZPd7plo_16cargo_quickstart8commands6doctor6checks5files5testss_23test_some_files_missings0_0Bd_
FNDA:0,_RNCNvNtNtNtNtNtCs92oXZPd7plo_16cargo_quickstart8commands6doctor6checks5files5testss_23test_some_files_missings1_0Bd_
FNDA:3,_RNCNvNtNtNtNtNtCs92oXZPd7plo_16cargo_quickstart8commands6doctor6checks5files5testss_23test_some_files_missings2_0Bd_
FNDA:0,_RNCNvNtNtNtNtNtCs92oXZPd7plo_16cargo_quickstart8commands6doctor6checks5files5testss_23test_some_files_missings3_0Bd_
FNDA:4,_RNCNvNtNtNtNtNtCs92oXZPd7plo_16cargo_quickstart8commands6doctor6checks5files5testss_23test_some_files_missings4_0Bd_
FNDA:0,_RNCNvNtNtNtNtNtCs92oXZPd7plo_16cargo_quickstart8commands6doctor6checks5files5testss_23test_some_files_missings5_0Bd_
FNDA:0,_RNCNvNtNtNtNtNtCs92oXZPd7plo_16cargo_quickstart8commands6doctor6checks5files5testss_23test_some_files_missings_0Bd_
FNDA:1,_RNvNtNtNtNtNtCs92oXZPd7plo_16cargo_quickstart8commands6doctor6checks5files5tests14setup_test_dir
FNDA:1,_RNvNtNtNtNtNtCs92oXZPd7plo_16cargo_quickstart8commands6doctor6checks5files5testss_22test_all_files_missing
FNDA:1,_RNvNtNtNtNtNtCs92oXZPd7plo_16cargo_quickstart8commands6doctor6checks5files5testss_22test_all_files_present
FNDA:1,_RNvNtNtNtNtNtCs92oXZPd7plo_16cargo_quickstart8commands6doctor6checks5files5testss_23test_some_files_missing
FNDA:6,_RNvMNtNtNtNtCs92oXZPd7plo_16cargo_quickstart8commands6doctor6checks5filesNtB2_10FilesCheck3new
FNDA:5,_RNvXs_NtNtNtNtCs92oXZPd7plo_16cargo_quickstart8commands6doctor6checks5filesNtB4_10FilesCheckNtNtB8_9diagnosis5Check3run
FNF:20
FNH:16
DA:14,11
DA:15,11
DA:16,11
DA:20,10
DA:21,10
DA:22,10
DA:23,10
DA:24,10
DA:25,10
DA:26,10
DA:27,10
DA:28,10
DA:29,10
DA:30,10
DA:31,10
DA:32,10
DA:34,10
DA:35,10
DA:36,40
DA:37,40
DA:39,40
DA:40,18
DA:41,18
DA:42,18
DA:43,18
DA:46,22
DA:47,2
DA:48,2
DA:49,2
DA:50,2
DA:53,2
DA:55,20
DA:56,20
DA:57,20
DA:58,20
DA:61,20
DA:63,40
DA:64,10
DA:65,10
DA:67,47
DA:68,47
DA:69,47
DA:71,7
DA:72,7
DA:73,7
DA:75,7
DA:76,7
DA:77,7
DA:89,1
DA:91,1
DA:92,0
DA:93,0
DA:94,0
DA:95,0
DA:96,1
DA:98,1
DA:99,5
DA:100,4
DA:102,1
DA:103,1
DA:106,1
DA:108,1
DA:109,0
DA:110,0
DA:111,1
DA:113,1
DA:114,1
DA:116,1
DA:117,1
DA:119,1
DA:120,4
DA:121,1
DA:122,1
DA:125,1
DA:127,1
DA:128,0
DA:129,0
DA:130,1
DA:132,1
DA:134,1
DA:135,1
DA:137,1
DA:138,1
DA:139,1
DA:140,1
DA:141,3
DA:142,1
DA:143,1
DA:146,1
DA:148,1
DA:149,0
DA:150,0
DA:151,1
DA:153,1
DA:154,1
DA:155,1
DA:157,1
DA:158,1
DA:160,1
DA:163,1
DA:164,1
DA:165,1
DA:166,1
DA:167,0
DA:168,0
DA:171,0
DA:172,1
DA:173,1
DA:174,2
DA:175,1
DA:176,0
DA:177,0
DA:180,0
DA:181,1
DA:182,1
DA:183,3
DA:184,1
DA:185,0
DA:186,0
DA:189,0
DA:190,1
DA:191,1
DA:192,4
DA:193,1
DA:194,0
DA:195,0
DA:197,1
DA:198,1
DA:199,1
DA:200,1
DA:201,1
DA:202,1
BRF:0
BRH:0
LF:147
LH:118
end_of_record
SF:/Users/smeya/git/cargo-quickstart/crates/quickstart-cli/src/commands/doctor/checks/lints.rs
FN:30,_RNvMs_NtNtNtNtCsj95mf2ixomG_16cargo_quickstart8commands6doctor6checks5lintsNtB4_10LintsCheck3new
FN:16,_RNvXNtNtNtNtCsj95mf2ixomG_16cargo_quickstart8commands6doctor6checks5lintsNtB2_19RealCommandExecutorNtB2_15CommandExecutor14execute_clippy
FN:44,_RNvXs0_NtNtNtNtCsj95mf2ixomG_16cargo_quickstart8commands6doctor6checks5lintsNtB5_10LintsCheckNtNtB9_9diagnosis5Check3run
FN:94,_RNvXs0_NtNtNtNtCsj95mf2ixomG_16cargo_quickstart8commands6doctor6checks5lintsNtB5_10LintsCheckNtNtB9_9diagnosis5Check11description
FN:90,_RNvXs0_NtNtNtNtCsj95mf2ixomG_16cargo_quickstart8commands6doctor6checks5lintsNtB5_10LintsCheckNtNtB9_9diagnosis5Check4name
FN:98,_RNvXs0_NtNtNtNtCsj95mf2ixomG_16cargo_quickstart8commands6doctor6checks5lintsNtB5_10LintsCheckNtNtB9_9diagnosis5Check8category
FN:30,_RNvMs_NtNtNtNtCs92oXZPd7plo_16cargo_quickstart8commands6doctor6checks5lintsNtB4_10LintsCheck3new
FN:16,_RNvXNtNtNtNtCs92oXZPd7plo_16cargo_quickstart8commands6doctor6checks5lintsNtB2_19RealCommandExecutorNtB2_15CommandExecutor14execute_clippy
FN:44,_RNvXs0_NtNtNtNtCs92oXZPd7plo_16cargo_quickstart8commands6doctor6checks5lintsNtB5_10LintsCheckNtNtB9_9diagnosis5Check3run
FN:90,_RNvXs0_NtNtNtNtCs92oXZPd7plo_16cargo_quickstart8commands6doctor6checks5lintsNtB5_10LintsCheckNtNtB9_9diagnosis5Check4name
FN:98,_RNvXs0_NtNtNtNtCs92oXZPd7plo_16cargo_quickstart8commands6doctor6checks5lintsNtB5_10LintsCheckNtNtB9_9diagnosis5Check8category
FN:38,_RNvMs_NtNtNtNtCs92oXZPd7plo_16cargo_quickstart8commands6doctor6checks5lintsNtB4_10LintsCheck13with_executor
FN:144,_RNvNtNtNtNtNtCs92oXZPd7plo_16cargo_quickstart8commands6doctor6checks5lints5tests14failure_output
FN:135,_RNvNtNtNtNtNtCs92oXZPd7plo_16cargo_quickstart8commands6doctor6checks5lints5tests14success_output
FN:213,_RNvNtNtNtNtNtCs92oXZPd7plo_16cargo_quickstart8commands6doctor6checks5lints5testss_16test_name_method
FN:225,_RNvNtNtNtNtNtCs92oXZPd7plo_16cargo_quickstart8commands6doctor6checks5lints5testss_20test_category_method
FN:190,_RNvNtNtNtNtNtCs92oXZPd7plo_16cargo_quickstart8commands6doctor6checks5lints5testss_22test_lints_check_error
FN:219,_RNvNtNtNtNtNtCs92oXZPd7plo_16cargo_quickstart8commands6doctor6checks5lints5testss_23test_description_method
FN:153,_RNvNtNtNtNtNtCs92oXZPd7plo_16cargo_quickstart8commands6doctor6checks5lints5testss_24test_lints_check_success
FN:167,_RNvNtNtNtNtNtCs92oXZPd7plo_16cargo_quickstart8commands6doctor6checks5lints5testss_24test_lints_check_warning
FN:123,_RNvXNtNtNtNtNtCs92oXZPd7plo_16cargo_quickstart8commands6doctor6checks5lints5testsNtB2_19MockCommandExecutorNtB4_15CommandExecutor14execute_clippy
FN:94,_RNvXs0_NtNtNtNtCs92oXZPd7plo_16cargo_quickstart8commands6doctor6checks5lintsNtB5_10LintsCheckNtNtB9_9diagnosis5Check11description
FNDA:5,_RNvMs_NtNtNtNtCsj95mf2ixomG_16cargo_quickstart8commands6doctor6checks5lintsNtB4_10LintsCheck3new
FNDA:5,_RNvXNtNtNtNtCsj95mf2ixomG_16cargo_quickstart8commands6doctor6checks5lintsNtB2_19RealCommandExecutorNtB2_15CommandExecutor14execute_clippy
FNDA:5,_RNvXs0_NtNtNtNtCsj95mf2ixomG_16cargo_quickstart8commands6doctor6checks5lintsNtB5_10LintsCheckNtNtB9_9diagnosis5Check3run
FNDA:5,_RNvXs0_NtNtNtNtCsj95mf2ixomG_16cargo_quickstart8commands6doctor6checks5lintsNtB5_10LintsCheckNtNtB9_9diagnosis5Check11description
FNDA:10,_RNvXs0_NtNtNtNtCsj95mf2ixomG_16cargo_quickstart8commands6doctor6checks5lintsNtB5_10LintsCheckNtNtB9_9diagnosis5Check4name
FNDA:10,_RNvXs0_NtNtNtNtCsj95mf2ixomG_16cargo_quickstart8commands6doctor6checks5lintsNtB5_10LintsCheckNtNtB9_9diagnosis5Check8category
FNDA:6,_RNvMs_NtNtNtNtCs92oXZPd7plo_16cargo_quickstart8commands6doctor6checks5lintsNtB4_10LintsCheck3new
FNDA:2,_RNvXNtNtNtNtCs92oXZPd7plo_16cargo_quickstart8commands6doctor6checks5lintsNtB2_19RealCommandExecutorNtB2_15CommandExecutor14execute_clippy
FNDA:5,_RNvXs0_NtNtNtNtCs92oXZPd7plo_16cargo_quickstart8commands6doctor6checks5lintsNtB5_10LintsCheckNtNtB9_9diagnosis5Check3run
FNDA:8,_RNvXs0_NtNtNtNtCs92oXZPd7plo_16cargo_quickstart8commands6doctor6checks5lintsNtB5_10LintsCheckNtNtB9_9diagnosis5Check4name
FNDA:8,_RNvXs0_NtNtNtNtCs92oXZPd7plo_16cargo_quickstart8commands6doctor6checks5lintsNtB5_10LintsCheckNtNtB9_9diagnosis5Check8category
FNDA:3,_RNvMs_NtNtNtNtCs92oXZPd7plo_16cargo_quickstart8commands6doctor6checks5lintsNtB4_10LintsCheck13with_executor
FNDA:1,_RNvNtNtNtNtNtCs92oXZPd7plo_16cargo_quickstart8commands6doctor6checks5lints5tests14failure_output
FNDA:1,_RNvNtNtNtNtNtCs92oXZPd7plo_16cargo_quickstart8commands6doctor6checks5lints5tests14success_output
FNDA:1,_RNvNtNtNtNtNtCs92oXZPd7plo_16cargo_quickstart8commands6doctor6checks5lints5testss_16test_name_method
FNDA:1,_RNvNtNtNtNtNtCs92oXZPd7plo_16cargo_quickstart8commands6doctor6checks5lints5testss_20test_category_method
FNDA:1,_RNvNtNtNtNtNtCs92oXZPd7plo_16cargo_quickstart8commands6doctor6checks5lints5testss_22test_lints_check_error
FNDA:1,_RNvNtNtNtNtNtCs92oXZPd7plo_16cargo_quickstart8commands6doctor6checks5lints5testss_23test_description_method
FNDA:1,_RNvNtNtNtNtNtCs92oXZPd7plo_16cargo_quickstart8commands6doctor6checks5lints5testss_24test_lints_check_success
FNDA:1,_RNvNtNtNtNtNtCs92oXZPd7plo_16cargo_quickstart8commands6doctor6checks5lints5testss_24test_lints_check_warning
FNDA:3,_RNvXNtNtNtNtNtCs92oXZPd7plo_16cargo_quickstart8commands6doctor6checks5lints5testsNtB2_19MockCommandExecutorNtB4_15CommandExecutor14execute_clippy
FNDA:3,_RNvXs0_NtNtNtNtCs92oXZPd7plo_16cargo_quickstart8commands6doctor6checks5lintsNtB5_10LintsCheckNtNtB9_9diagnosis5Check11description
FNF:16
FNH:16
DA:16,7
DA:17,7
DA:18,7
DA:19,7
DA:20,7
DA:30,11
DA:31,11
DA:32,11
DA:33,11
DA:34,11
DA:38,3
DA:39,3
DA:40,3
DA:44,10
DA:45,10
DA:48,10
DA:50,10
DA:51,9
DA:52,9
DA:53,7
DA:54,7
DA:55,7
DA:56,7
DA:57,7
DA:58,7
DA:59,7
DA:60,2
DA:61,2
DA:62,2
DA:63,2
DA:64,2
DA:65,2
DA:66,2
DA:67,2
DA:68,2
DA:69,2
DA:70,2
DA:72,1
DA:73,1
DA:74,1
DA:75,1
DA:76,1
DA:77,1
DA:78,1
DA:79,1
DA:80,1
DA:81,1
DA:82,1
DA:83,1
DA:84,1
DA:87,10
DA:88,10
DA:90,18
DA:91,18
DA:92,18
DA:94,8
DA:95,8
DA:96,8
DA:98,18
DA:99,18
DA:100,18
DA:123,3
DA:124,3
DA:125,1
DA:126,1
DA:128,1
DA:131,3
DA:135,1
DA:136,1
DA:137,1
DA:138,1
DA:139,1
DA:140,1
DA:141,1
DA:144,1
DA:145,1
DA:146,1
DA:147,1
DA:148,1
DA:149,1
DA:150,1
DA:153,1
DA:154,1
DA:155,1
DA:156,1
DA:157,1
DA:159,1
DA:161,1
DA:162,1
DA:163,1
DA:164,1
DA:167,1
DA:168,1
DA:169,1
DA:170,1
DA:171,1
DA:173,1
DA:175,1
DA:176,1
DA:177,1
DA:178,1
DA:179,1
DA:182,1
DA:183,1
DA:185,0
DA:187,1
DA:190,1
DA:191,1
DA:192,1
DA:193,1
DA:194,1
DA:196,1
DA:198,1
DA:199,1
DA:200,1
DA:201,1
DA:202,1
DA:205,1
DA:206,1
DA:208,0
DA:210,1
DA:213,1
DA:214,1
DA:215,1
DA:216,1
DA:219,1
DA:220,1
DA:221,1
DA:222,1
DA:225,1
DA:226,1
DA:227,1
DA:228,1
BRF:0
BRH:0
LF:133
LH:131
end_of_record
SF:/Users/smeya/git/cargo-quickstart/crates/quickstart-cli/src/commands/doctor/checks/rust.rs
FN:39,_RNvMNtNtNtNtCsj95mf2ixomG_16cargo_quickstart8commands6doctor6checks4rustNtB2_18RustToolchainCheck10check_tool
FN:112,_RNvNtNtNtNtCsj95mf2ixomG_16cargo_quickstart8commands6doctor6checks4rust14run_version_fn
FN:107,_RNvNtNtNtNtCsj95mf2ixomG_16cargo_quickstart8commands6doctor6checks4rust8which_fn
FN:87,_RNvXs_NtNtNtNtCsj95mf2ixomG_16cargo_quickstart8commands6doctor6checks4rustNtB4_18RustToolchainCheckNtNtB8_9diagnosis5Check3run
FN:19,_RNvMNtNtNtNtCsj95mf2ixomG_16cargo_quickstart8commands6doctor6checks4rustNtB2_18RustToolchainCheck3new
FN:97,_RNvXs_NtNtNtNtCsj95mf2ixomG_16cargo_quickstart8commands6doctor6checks4rustNtB4_18RustToolchainCheckNtNtB8_9diagnosis5Check11description
FN:93,_RNvXs_NtNtNtNtCsj95mf2ixomG_16cargo_quickstart8commands6doctor6checks4rustNtB4_18RustToolchainCheckNtNtB8_9diagnosis5Check4name
FN:101,_RNvXs_NtNtNtNtCsj95mf2ixomG_16cargo_quickstart8commands6doctor6checks4rustNtB4_18RustToolchainCheckNtNtB8_9diagnosis5Check8category
FN:28,_RNvMNtNtNtNtCsj95mf2ixomG_16cargo_quickstart8commands6doctor6checks4rustNtB2_18RustToolchainCheck14with_executors
FN:39,_RNvMNtNtNtNtCs92oXZPd7plo_16cargo_quickstart8commands6doctor6checks4rustNtB2_18RustToolchainCheck10check_tool
FN:112,_RNvNtNtNtNtCs92oXZPd7plo_16cargo_quickstart8commands6doctor6checks4rust14run_version_fn
FN:107,_RNvNtNtNtNtCs92oXZPd7plo_16cargo_quickstart8commands6doctor6checks4rust8which_fn
FN:87,_RNvXs_NtNtNtNtCs92oXZPd7plo_16cargo_quickstart8commands6doctor6checks4rustNtB4_18RustToolchainCheckNtNtB8_9diagnosis5Check3run
FN:93,_RNvXs_NtNtNtNtCs92oXZPd7plo_16cargo_quickstart8commands6doctor6checks4rustNtB4_18RustToolchainCheckNtNtB8_9diagnosis5Check4name
FN:101,_RNvXs_NtNtNtNtCs92oXZPd7plo_16cargo_quickstart8commands6doctor6checks4rustNtB4_18RustToolchainCheckNtNtB8_9diagnosis5Check8category
FN:28,_RNvMNtNtNtNtCs92oXZPd7plo_16cargo_quickstart8commands6doctor6checks4rustNtB2_18RustToolchainCheck14with_executors
FN:19,_RNvMNtNtNtNtCs92oXZPd7plo_16cargo_quickstart8commands6doctor6checks4rustNtB2_18RustToolchainCheck3new
FN:121,_RNvNtNtNtNtNtCs92oXZPd7plo_16cargo_quickstart8commands6doctor6checks4rust5tests11mock_output
FN:133,_RNvNtNtNtNtNtCs92oXZPd7plo_16cargo_quickstart8commands6doctor6checks4rust5tests9mock_path
FN:138,_RNvNtNtNtNtNtCs92oXZPd7plo_16cargo_quickstart8commands6doctor6checks4rust5testss_18test_both_tools_ok
FN:155,_RNvNtNtNtNtNtCs92oXZPd7plo_16cargo_quickstart8commands6doctor6checks4rust5testss_18test_cargo_missing
FN:178,_RNvNtNtNtNtNtCs92oXZPd7plo_16cargo_quickstart8commands6doctor6checks4rust5testss_18test_rustc_missing
FN:201,_RNvNtNtNtNtNtCs92oXZPd7plo_16cargo_quickstart8commands6doctor6checks4rust5testss_24test_cargo_version_fails
FN:139,_RNvNvNtNtNtNtNtCs92oXZPd7plo_16cargo_quickstart8commands6doctor6checks4rust5testss_18test_both_tools_ok14which_executor
FN:142,_RNvNvNtNtNtNtNtCs92oXZPd7plo_16cargo_quickstart8commands6doctor6checks4rust5testss_18test_both_tools_ok16command_executor
FN:156,_RNvNvNtNtNtNtNtCs92oXZPd7plo_16cargo_quickstart8commands6doctor6checks4rust5testss_18test_cargo_missing14which_executor
FN:166,_RNvNvNtNtNtNtNtCs92oXZPd7plo_16cargo_quickstart8commands6doctor6checks4rust5testss_18test_cargo_missing16command_executor
FN:179,_RNvNvNtNtNtNtNtCs92oXZPd7plo_16cargo_quickstart8commands6doctor6checks4rust5testss_18test_rustc_missing14which_executor
FN:189,_RNvNvNtNtNtNtNtCs92oXZPd7plo_16cargo_quickstart8commands6doctor6checks4rust5testss_18test_rustc_missing16command_executor
FN:202,_RNvNvNtNtNtNtNtCs92oXZPd7plo_16cargo_quickstart8commands6doctor6checks4rust5testss_24test_cargo_version_fails14which_executor
FN:205,_RNvNvNtNtNtNtNtCs92oXZPd7plo_16cargo_quickstart8commands6doctor6checks4rust5testss_24test_cargo_version_fails16command_executor
FN:97,_RNvXs_NtNtNtNtCs92oXZPd7plo_16cargo_quickstart8commands6doctor6checks4rustNtB4_18RustToolchainCheckNtNtB8_9diagnosis5Check11description
FNDA:10,_RNvMNtNtNtNtCsj95mf2ixomG_16cargo_quickstart8commands6doctor6checks4rustNtB2_18RustToolchainCheck10check_tool
FNDA:10,_RNvNtNtNtNtCsj95mf2ixomG_16cargo_quickstart8commands6doctor6checks4rust14run_version_fn
FNDA:10,_RNvNtNtNtNtCsj95mf2ixomG_16cargo_quickstart8commands6doctor6checks4rust8which_fn
FNDA:5,_RNvXs_NtNtNtNtCsj95mf2ixomG_16cargo_quickstart8commands6doctor6checks4rustNtB4_18RustToolchainCheckNtNtB8_9diagnosis5Check3run
FNDA:5,_RNvMNtNtNtNtCsj95mf2ixomG_16cargo_quickstart8commands6doctor6checks4rustNtB2_18RustToolchainCheck3new
FNDA:5,_RNvXs_NtNtNtNtCsj95mf2ixomG_16cargo_quickstart8commands6doctor6checks4rustNtB4_18RustToolchainCheckNtNtB8_9diagnosis5Check11description
FNDA:15,_RNvXs_NtNtNtNtCsj95mf2ixomG_16cargo_quickstart8commands6doctor6checks4rustNtB4_18RustToolchainCheckNtNtB8_9diagnosis5Check4name
FNDA:15,_RNvXs_NtNtNtNtCsj95mf2ixomG_16cargo_quickstart8commands6doctor6checks4rustNtB4_18RustToolchainCheckNtNtB8_9diagnosis5Check8category
FNDA:0,_RNvMNtNtNtNtCsj95mf2ixomG_16cargo_quickstart8commands6doctor6checks4rustNtB2_18RustToolchainCheck14with_executors
FNDA:12,_RNvMNtNtNtNtCs92oXZPd7plo_16cargo_quickstart8commands6doctor6checks4rustNtB2_18RustToolchainCheck10check_tool
FNDA:4,_RNvNtNtNtNtCs92oXZPd7plo_16cargo_quickstart8commands6doctor6checks4rust14run_version_fn
FNDA:4,_RNvNtNtNtNtCs92oXZPd7plo_16cargo_quickstart8commands6doctor6checks4rust8which_fn
FNDA:6,_RNvXs_NtNtNtNtCs92oXZPd7plo_16cargo_quickstart8commands6doctor6checks4rustNtB4_18RustToolchainCheckNtNtB8_9diagnosis5Check3run
FNDA:14,_RNvXs_NtNtNtNtCs92oXZPd7plo_16cargo_quickstart8commands6doctor6checks4rustNtB4_18RustToolchainCheckNtNtB8_9diagnosis5Check4name
FNDA:14,_RNvXs_NtNtNtNtCs92oXZPd7plo_16cargo_quickstart8commands6doctor6checks4rustNtB4_18RustToolchainCheckNtNtB8_9diagnosis5Check8category
FNDA:4,_RNvMNtNtNtNtCs92oXZPd7plo_16cargo_quickstart8commands6doctor6checks4rustNtB2_18RustToolchainCheck14with_executors
FNDA:3,_RNvMNtNtNtNtCs92oXZPd7plo_16cargo_quickstart8commands6doctor6checks4rustNtB2_18RustToolchainCheck3new
FNDA:6,_RNvNtNtNtNtNtCs92oXZPd7plo_16cargo_quickstart8commands6doctor6checks4rust5tests11mock_output
FNDA:6,_RNvNtNtNtNtNtCs92oXZPd7plo_16cargo_quickstart8commands6doctor6checks4rust5tests9mock_path
FNDA:1,_RNvNtNtNtNtNtCs92oXZPd7plo_16cargo_quickstart8commands6doctor6checks4rust5testss_18test_both_tools_ok
FNDA:1,_RNvNtNtNtNtNtCs92oXZPd7plo_16cargo_quickstart8commands6doctor6checks4rust5testss_18test_cargo_missing
FNDA:1,_RNvNtNtNtNtNtCs92oXZPd7plo_16cargo_quickstart8commands6doctor6checks4rust5testss_18test_rustc_missing
FNDA:1,_RNvNtNtNtNtNtCs92oXZPd7plo_16cargo_quickstart8commands6doctor6checks4rust5testss_24test_cargo_version_fails
FNDA:2,_RNvNvNtNtNtNtNtCs92oXZPd7plo_16cargo_quickstart8commands6doctor6checks4rust5testss_18test_both_tools_ok14which_executor
FNDA:2,_RNvNvNtNtNtNtNtCs92oXZPd7plo_16cargo_quickstart8commands6doctor6checks4rust5testss_18test_both_tools_ok16command_executor
FNDA:2,_RNvNvNtNtNtNtNtCs92oXZPd7plo_16cargo_quickstart8commands6doctor6checks4rust5testss_18test_cargo_missing14which_executor
FNDA:1,_RNvNvNtNtNtNtNtCs92oXZPd7plo_16cargo_quickstart8commands6doctor6checks4rust5testss_18test_cargo_missing16command_executor
FNDA:2,_RNvNvNtNtNtNtNtCs92oXZPd7plo_16cargo_quickstart8commands6doctor6checks4rust5testss_18test_rustc_missing14which_executor
FNDA:1,_RNvNvNtNtNtNtNtCs92oXZPd7plo_16cargo_quickstart8commands6doctor6checks4rust5testss_18test_rustc_missing16command_executor
FNDA:2,_RNvNvNtNtNtNtNtCs92oXZPd7plo_16cargo_quickstart8commands6doctor6checks4rust5testss_24test_cargo_version_fails14which_executor
FNDA:2,_RNvNvNtNtNtNtNtCs92oXZPd7plo_16cargo_quickstart8commands6doctor6checks4rust5testss_24test_cargo_version_fails16command_executor
FNDA:2,_RNvXs_NtNtNtNtCs92oXZPd7plo_16cargo_quickstart8commands6doctor6checks4rustNtB4_18RustToolchainCheckNtNtB8_9diagnosis5Check11description
FNF:23
FNH:23
DA:19,8
DA:20,8
DA:21,8
DA:22,8
DA:23,8
DA:24,8
DA:28,4
DA:29,4
DA:30,4
DA:31,4
DA:32,4
DA:33,4
DA:34,4
DA:35,4
DA:36,4
DA:39,22
DA:40,22
DA:41,20
DA:42,20
DA:43,20
DA:44,20
DA:45,20
DA:46,20
DA:47,19
DA:48,19
DA:49,19
DA:50,19
DA:51,19
DA:52,19
DA:54,19
DA:57,1
DA:58,1
DA:59,1
DA:60,1
DA:61,1
DA:63,1
DA:66,0
DA:67,0
DA:68,0
DA:69,0
DA:70,0
DA:72,0
DA:75,2
DA:76,2
DA:77,2
DA:78,2
DA:79,2
DA:81,2
DA:83,22
DA:87,11
DA:88,11
DA:90,11
DA:91,11
DA:93,29
DA:94,29
DA:95,29
DA:97,7
DA:98,7
DA:99,7
DA:101,29
DA:102,29
DA:103,29
DA:107,14
DA:108,14
DA:109,14
DA:112,14
DA:113,14
DA:114,14
DA:121,6
DA:123,6
DA:124,5
DA:126,1
DA:128,6
DA:129,6
DA:131,6
DA:133,6
DA:134,6
DA:135,6
DA:138,1
DA:139,2
DA:140,2
DA:141,2
DA:142,2
DA:143,2
DA:144,2
DA:146,1
DA:147,1
DA:149,1
DA:150,1
DA:151,1
DA:152,1
DA:155,1
DA:156,2
DA:157,2
DA:158,1
DA:159,1
DA:160,1
DA:161,1
DA:163,1
DA:165,2
DA:166,1
DA:167,1
DA:168,1
DA:170,1
DA:171,1
DA:173,1
DA:174,1
DA:175,1
DA:178,1
DA:179,2
DA:180,2
DA:181,1
DA:182,1
DA:183,1
DA:184,1
DA:186,1
DA:188,2
DA:189,1
DA:190,1
DA:191,1
DA:193,1
DA:194,1
DA:196,1
DA:197,1
DA:198,1
DA:201,1
DA:202,2
DA:203,2
DA:204,2
DA:205,2
DA:206,2
DA:207,1
DA:209,1
DA:211,2
DA:213,1
DA:214,1
DA:216,1
DA:217,1
DA:218,1
BRF:0
BRH:0
LF:139
LH:133
end_of_record
SF:/Users/smeya/git/cargo-quickstart/crates/quickstart-cli/src/commands/doctor/checks/templates.rs
FN:34,_RNvMNtNtNtNtCsj95mf2ixomG_16cargo_quickstart8commands6doctor6checks9templatesNtB2_14TemplatesCheck19check_template_docs
FN:22,_RNvMNtNtNtNtCsj95mf2ixomG_16cargo_quickstart8commands6doctor6checks9templatesNtB2_14TemplatesCheck21check_template_naming
FN:46,_RNvMNtNtNtNtCsj95mf2ixomG_16cargo_quickstart8commands6doctor6checks9templatesNtB2_14TemplatesCheck23check_template_validity
FN:15,_RNvMNtNtNtNtCsj95mf2ixomG_16cargo_quickstart8commands6doctor6checks9templatesNtB2_14TemplatesCheck3new
FN:59,_RNvXs_NtNtNtNtCsj95mf2ixomG_16cargo_quickstart8commands6doctor6checks9templatesNtB4_14TemplatesCheckNtNtB8_9diagnosis5Check3run
FN:71,_RNvXs_NtNtNtNtCsj95mf2ixomG_16cargo_quickstart8commands6doctor6checks9templatesNtB4_14TemplatesCheckNtNtB8_9diagnosis5Check11description
FN:67,_RNvXs_NtNtNtNtCsj95mf2ixomG_16cargo_quickstart8commands6doctor6checks9templatesNtB4_14TemplatesCheckNtNtB8_9diagnosis5Check4name
FN:75,_RNvXs_NtNtNtNtCsj95mf2ixomG_16cargo_quickstart8commands6doctor6checks9templatesNtB4_14TemplatesCheckNtNtB8_9diagnosis5Check8category
FN:34,_RNvMNtNtNtNtCs92oXZPd7plo_16cargo_quickstart8commands6doctor6checks9templatesNtB2_14TemplatesCheck19check_template_docs
FN:22,_RNvMNtNtNtNtCs92oXZPd7plo_16cargo_quickstart8commands6doctor6checks9templatesNtB2_14TemplatesCheck21check_template_naming
FN:46,_RNvMNtNtNtNtCs92oXZPd7plo_16cargo_quickstart8commands6doctor6checks9templatesNtB2_14TemplatesCheck23check_template_validity
FN:15,_RNvMNtNtNtNtCs92oXZPd7plo_16cargo_quickstart8commands6doctor6checks9templatesNtB2_14TemplatesCheck3new
FN:71,_RNvXs_NtNtNtNtCs92oXZPd7plo_16cargo_quickstart8commands6doctor6checks9templatesNtB4_14TemplatesCheckNtNtB8_9diagnosis5Check11description
FN:59,_RNvXs_NtNtNtNtCs92oXZPd7plo_16cargo_quickstart8commands6doctor6checks9templatesNtB4_14TemplatesCheckNtNtB8_9diagnosis5Check3run
FN:67,_RNvXs_NtNtNtNtCs92oXZPd7plo_16cargo_quickstart8commands6doctor6checks9templatesNtB4_14TemplatesCheckNtNtB8_9diagnosis5Check4name
FN:75,_RNvXs_NtNtNtNtCs92oXZPd7plo_16cargo_quickstart8commands6doctor6checks9templatesNtB4_14TemplatesCheckNtNtB8_9diagnosis5Check8category
FN:85,_RNvNtNtNtNtNtCs92oXZPd7plo_16cargo_quickstart8commands6doctor6checks9templates5testss_16test_name_method
FN:100,_RNvNtNtNtNtNtCs92oXZPd7plo_16cargo_quickstart8commands6doctor6checks9templates5testss_20test_category_method
FN:91,_RNvNtNtNtNtNtCs92oXZPd7plo_16cargo_quickstart8commands6doctor6checks9templates5testss_23test_description_method
FN:106,_RNvNtNtNtNtNtCs92oXZPd7plo_16cargo_quickstart8commands6doctor6checks9templates5testss_28test_run_returns_diagnostics
FNDA:5,_RNvMNtNtNtNtCsj95mf2ixomG_16cargo_quickstart8commands6doctor6checks9templatesNtB2_14TemplatesCheck19check_template_docs
FNDA:5,_RNvMNtNtNtNtCsj95mf2ixomG_16cargo_quickstart8commands6doctor6checks9templatesNtB2_14TemplatesCheck21check_template_naming
FNDA:5,_RNvMNtNtNtNtCsj95mf2ixomG_16cargo_quickstart8commands6doctor6checks9templatesNtB2_14TemplatesCheck23check_template_validity
FNDA:5,_RNvMNtNtNtNtCsj95mf2ixomG_16cargo_quickstart8commands6doctor6checks9templatesNtB2_14TemplatesCheck3new
FNDA:5,_RNvXs_NtNtNtNtCsj95mf2ixomG_16cargo_quickstart8commands6doctor6checks9templatesNtB4_14TemplatesCheckNtNtB8_9diagnosis5Check3run
FNDA:5,_RNvXs_NtNtNtNtCsj95mf2ixomG_16cargo_quickstart8commands6doctor6checks9templatesNtB4_14TemplatesCheckNtNtB8_9diagnosis5Check11description
FNDA:20,_RNvXs_NtNtNtNtCsj95mf2ixomG_16cargo_quickstart8commands6doctor6checks9templatesNtB4_14TemplatesCheckNtNtB8_9diagnosis5Check4name
FNDA:20,_RNvXs_NtNtNtNtCsj95mf2ixomG_16cargo_quickstart8commands6doctor6checks9templatesNtB4_14TemplatesCheckNtNtB8_9diagnosis5Check8category
FNDA:3,_RNvMNtNtNtNtCs92oXZPd7plo_16cargo_quickstart8commands6doctor6checks9templatesNtB2_14TemplatesCheck19check_template_docs
FNDA:3,_RNvMNtNtNtNtCs92oXZPd7plo_16cargo_quickstart8commands6doctor6checks9templatesNtB2_14TemplatesCheck21check_template_naming
FNDA:3,_RNvMNtNtNtNtCs92oXZPd7plo_16cargo_quickstart8commands6doctor6checks9templatesNtB2_14TemplatesCheck23check_template_validity
FNDA:7,_RNvMNtNtNtNtCs92oXZPd7plo_16cargo_quickstart8commands6doctor6checks9templatesNtB2_14TemplatesCheck3new
FNDA:3,_RNvXs_NtNtNtNtCs92oXZPd7plo_16cargo_quickstart8commands6doctor6checks9templatesNtB4_14TemplatesCheckNtNtB8_9diagnosis5Check11description
FNDA:3,_RNvXs_NtNtNtNtCs92oXZPd7plo_16cargo_quickstart8commands6doctor6checks9templatesNtB4_14TemplatesCheckNtNtB8_9diagnosis5Check3run
FNDA:12,_RNvXs_NtNtNtNtCs92oXZPd7plo_16cargo_quickstart8commands6doctor6checks9templatesNtB4_14TemplatesCheckNtNtB8_9diagnosis5Check4name
FNDA:12,_RNvXs_NtNtNtNtCs92oXZPd7plo_16cargo_quickstart8commands6doctor6checks9templatesNtB4_14TemplatesCheckNtNtB8_9diagnosis5Check8category
FNDA:1,_RNvNtNtNtNtNtCs92oXZPd7plo_16cargo_quickstart8commands6doctor6checks9templates5testss_16test_name_method
FNDA:1,_RNvNtNtNtNtNtCs92oXZPd7plo_16cargo_quickstart8commands6doctor6checks9templates5testss_20test_category_method
FNDA:1,_RNvNtNtNtNtNtCs92oXZPd7plo_16cargo_quickstart8commands6doctor6checks9templates5testss_23test_description_method
FNDA:1,_RNvNtNtNtNtNtCs92oXZPd7plo_16cargo_quickstart8commands6doctor6checks9templates5testss_28test_run_returns_diagnostics
FNF:12
FNH:12
DA:15,12
DA:16,12
DA:17,12
DA:18,12
DA:19,12
DA:22,8
DA:25,8
DA:26,8
DA:27,8
DA:29,8
DA:31,8
DA:34,8
DA:37,8
DA:38,8
DA:39,8
DA:41,8
DA:43,8
DA:46,8
DA:49,8
DA:50,8
DA:51,8
DA:53,8
DA:55,8
DA:59,8
DA:60,8
DA:61,8
DA:62,8
DA:63,8
DA:65,8
DA:67,32
DA:68,32
DA:69,32
DA:71,8
DA:72,8
DA:73,8
DA:75,32
DA:76,32
DA:77,32
DA:85,1
DA:86,1
DA:87,1
DA:88,1
DA:91,1
DA:92,1
DA:93,1
DA:94,1
DA:97,1
DA:100,1
DA:101,1
DA:102,1
DA:103,1
DA:106,1
DA:107,1
DA:108,1
DA:109,1
DA:110,1
BRF:0
BRH:0
LF:56
LH:56
end_of_record
SF:/Users/smeya/git/cargo-quickstart/crates/quickstart-cli/src/commands/doctor/diagnosis.rs
FN:32,_RNvNtNtNtCsj95mf2ixomG_16cargo_quickstart8commands6doctor9diagnosis10run_checks
FN:32,_RNvNtNtNtCs92oXZPd7plo_16cargo_quickstart8commands6doctor9diagnosis10run_checks
FN:68,_RINvMNtNtNtNtCs92oXZPd7plo_16cargo_quickstart8commands6doctor9diagnosis5testsNtB3_9MockCheck3newReB1w_B1w_EBb_
FN:121,_RNvNtNtNtNtCs92oXZPd7plo_16cargo_quickstart8commands6doctor9diagnosis5testss_22test_report_generation
FN:102,_RNvNtNtNtNtCs92oXZPd7plo_16cargo_quickstart8commands6doctor9diagnosis5testss_24test_diagnostic_creation
FN:92,_RNvXs_NtNtNtNtCs92oXZPd7plo_16cargo_quickstart8commands6doctor9diagnosis5testsNtB4_9MockCheckNtB6_5Check11description
FN:84,_RNvXs_NtNtNtNtCs92oXZPd7plo_16cargo_quickstart8commands6doctor9diagnosis5testsNtB4_9MockCheckNtB6_5Check3run
FN:88,_RNvXs_NtNtNtNtCs92oXZPd7plo_16cargo_quickstart8commands6doctor9diagnosis5testsNtB4_9MockCheckNtB6_5Check4name
FN:96,_RNvXs_NtNtNtNtCs92oXZPd7plo_16cargo_quickstart8commands6doctor9diagnosis5testsNtB4_9MockCheckNtB6_5Check8category
FNDA:5,_RNvNtNtNtCsj95mf2ixomG_16cargo_quickstart8commands6doctor9diagnosis10run_checks
FNDA:3,_RNvNtNtNtCs92oXZPd7plo_16cargo_quickstart8commands6doctor9diagnosis10run_checks
FNDA:2,_RINvMNtNtNtNtCs92oXZPd7plo_16cargo_quickstart8commands6doctor9diagnosis5testsNtB3_9MockCheck3newReB1w_B1w_EBb_
FNDA:1,_RNvNtNtNtNtCs92oXZPd7plo_16cargo_quickstart8commands6doctor9diagnosis5testss_22test_report_generation
FNDA:1,_RNvNtNtNtNtCs92oXZPd7plo_16cargo_quickstart8commands6doctor9diagnosis5testss_24test_diagnostic_creation
FNDA:2,_RNvXs_NtNtNtNtCs92oXZPd7plo_16cargo_quickstart8commands6doctor9diagnosis5testsNtB4_9MockCheckNtB6_5Check11description
FNDA:2,_RNvXs_NtNtNtNtCs92oXZPd7plo_16cargo_quickstart8commands6doctor9diagnosis5testsNtB4_9MockCheckNtB6_5Check3run
FNDA:2,_RNvXs_NtNtNtNtCs92oXZPd7plo_16cargo_quickstart8commands6doctor9diagnosis5testsNtB4_9MockCheckNtB6_5Check4name
FNDA:2,_RNvXs_NtNtNtNtCs92oXZPd7plo_16cargo_quickstart8commands6doctor9diagnosis5testsNtB4_9MockCheckNtB6_5Check8category
FNF:8
FNH:8
DA:32,8
DA:33,8
DA:35,45
DA:36,37
DA:37,37
DA:38,37
DA:39,37
DA:40,37
DA:41,37
DA:42,37
DA:43,37
DA:44,37
DA:45,37
DA:46,37
DA:47,37
DA:48,37
DA:49,37
DA:51,8
DA:52,8
DA:68,2
DA:69,2
DA:70,2
DA:71,2
DA:72,2
DA:73,2
DA:74,2
DA:75,2
DA:76,2
DA:77,2
DA:78,2
DA:79,2
DA:80,2
DA:84,2
DA:85,2
DA:86,2
DA:88,2
DA:89,2
DA:90,2
DA:92,2
DA:93,2
DA:94,2
DA:96,2
DA:97,2
DA:98,2
DA:102,1
DA:103,1
DA:105,1
DA:109,1
DA:110,1
DA:112,1
DA:113,1
DA:114,1
DA:115,1
DA:116,1
DA:117,1
DA:118,1
DA:121,1
DA:123,1
DA:125,1
DA:130,1
DA:132,1
DA:138,1
DA:139,1
DA:140,1
DA:141,1
DA:142,1
DA:143,1
DA:144,1
DA:145,1
DA:146,1
DA:147,1
DA:148,1
DA:149,1
DA:150,1
DA:154,1
DA:157,1
DA:158,1
DA:159,1
DA:162,1
DA:163,1
DA:164,1
DA:165,1
DA:166,1
DA:167,1
DA:168,1
BRF:0
BRH:0
LF:85
LH:85
end_of_record
SF:/Users/smeya/git/cargo-quickstart/crates/quickstart-cli/src/commands/doctor/mod.rs
FN:101,_RNCNvNtNtCsj95mf2ixomG_16cargo_quickstart8commands6doctor7execute0B7_
FN:116,_RNvNtNtCsj95mf2ixomG_16cargo_quickstart8commands6doctor14collect_checks
FN:18,_RNvNtNtCsj95mf2ixomG_16cargo_quickstart8commands6doctor7execute
FN:101,_RNCNvNtNtCs92oXZPd7plo_16cargo_quickstart8commands6doctor7execute0B7_
FN:116,_RNvNtNtCs92oXZPd7plo_16cargo_quickstart8commands6doctor14collect_checks
FN:18,_RNvNtNtCs92oXZPd7plo_16cargo_quickstart8commands6doctor7execute
FN:144,_RNvNtNtNtCs92oXZPd7plo_16cargo_quickstart8commands6doctor5testss_31test_execute_runs_without_error
FN:135,_RNvNtNtNtCs92oXZPd7plo_16cargo_quickstart8commands6doctor5testss_34test_collect_checks_returns_checks
FNDA:65,_RNCNvNtNtCsj95mf2ixomG_16cargo_quickstart8commands6doctor7execute0B7_
FNDA:5,_RNvNtNtCsj95mf2ixomG_16cargo_quickstart8commands6doctor14collect_checks
FNDA:5,_RNvNtNtCsj95mf2ixomG_16cargo_quickstart8commands6doctor7execute
FNDA:26,_RNCNvNtNtCs92oXZPd7plo_16cargo_quickstart8commands6doctor7execute0B7_
FNDA:3,_RNvNtNtCs92oXZPd7plo_16cargo_quickstart8commands6doctor14collect_checks
FNDA:2,_RNvNtNtCs92oXZPd7plo_16cargo_quickstart8commands6doctor7execute
FNDA:1,_RNvNtNtNtCs92oXZPd7plo_16cargo_quickstart8commands6doctor5testss_31test_execute_runs_without_error
FNDA:1,_RNvNtNtNtCs92oXZPd7plo_16cargo_quickstart8commands6doctor5testss_34test_collect_checks_returns_checks
FNF:5
FNH:5
DA:18,7
DA:19,7
DA:22,7
DA:23,7
DA:26,42
DA:27,35
DA:28,35
DA:29,35
DA:31,35
DA:32,0
DA:33,0
DA:34,35
DA:37,126
DA:38,91
DA:39,66
DA:40,0
DA:41,24
DA:42,1
DA:45,91
DA:46,7
DA:47,84
DA:49,91
DA:50,25
DA:51,66
DA:56,7
DA:58,7
DA:59,7
DA:60,7
DA:61,7
DA:62,7
DA:63,7
DA:64,7
DA:67,7
DA:68,7
DA:69,7
DA:70,0
DA:72,7
DA:73,6
DA:75,1
DA:76,1
DA:78,0
DA:79,0
DA:81,0
DA:85,7
DA:86,7
DA:88,7
DA:89,1
DA:90,6
DA:92,7
DA:93,7
DA:94,7
DA:97,7
DA:98,42
DA:99,35
DA:100,35
DA:101,91
DA:102,35
DA:104,35
DA:105,15
DA:106,15
DA:107,15
DA:108,20
DA:110,0
DA:112,7
DA:113,7
DA:116,8
DA:119,8
DA:120,8
DA:121,8
DA:122,8
DA:123,8
DA:124,8
DA:127,8
DA:128,8
DA:135,1
DA:136,1
DA:137,1
DA:138,1
DA:139,0
DA:141,1
DA:144,1
DA:146,1
DA:147,0
DA:148,0
DA:149,1
DA:151,1
DA:152,1
DA:153,1
BRF:0
BRH:0
LF:89
LH:78
end_of_record
SF:/Users/smeya/git/cargo-quickstart/crates/quickstart-cli/src/commands/doctor/reporting.rs
FN:100,_RNCNvMNtNtNtCsj95mf2ixomG_16cargo_quickstart8commands6doctor9reportingNtB4_16DiagnosticReport10statistics0Ba_
FN:58,_RNCNvMNtNtNtCsj95mf2ixomG_16cargo_quickstart8commands6doctor9reportingNtB4_16DiagnosticReport23diagnostics_by_severitys_0Ba_
FN:48,_RNvMNtNtNtCsj95mf2ixomG_16cargo_quickstart8commands6doctor9reportingNtB2_16DiagnosticReport10add_result
FN:97,_RNvMNtNtNtCsj95mf2ixomG_16cargo_quickstart8commands6doctor9reportingNtB2_16DiagnosticReport10statistics
FN:78,_RNvMNtNtNtCsj95mf2ixomG_16cargo_quickstart8commands6doctor9reportingNtB2_16DiagnosticReport12health_score
FN:63,_RNvMNtNtNtCsj95mf2ixomG_16cargo_quickstart8commands6doctor9reportingNtB2_16DiagnosticReport23diagnostics_by_category
FN:54,_RNvMNtNtNtCsj95mf2ixomG_16cargo_quickstart8commands6doctor9reportingNtB2_16DiagnosticReport23diagnostics_by_severity
FN:40,_RNvMNtNtNtCsj95mf2ixomG_16cargo_quickstart8commands6doctor9reportingNtB2_16DiagnosticReport3new
FN:100,_RNCNvMNtNtNtCs92oXZPd7plo_16cargo_quickstart8commands6doctor9reportingNtB4_16DiagnosticReport10statistics0Ba_
FN:58,_RNCNvMNtNtNtCs92oXZPd7plo_16cargo_quickstart8commands6doctor9reportingNtB4_16DiagnosticReport23diagnostics_by_severitys_0Ba_
FN:48,_RNvMNtNtNtCs92oXZPd7plo_16cargo_quickstart8commands6doctor9reportingNtB2_16DiagnosticReport10add_result
FN:97,_RNvMNtNtNtCs92oXZPd7plo_16cargo_quickstart8commands6doctor9reportingNtB2_16DiagnosticReport10statistics
FN:78,_RNvMNtNtNtCs92oXZPd7plo_16cargo_quickstart8commands6doctor9reportingNtB2_16DiagnosticReport12health_score
FN:63,_RNvMNtNtNtCs92oXZPd7plo_16cargo_quickstart8commands6doctor9reportingNtB2_16DiagnosticReport23diagnostics_by_category
FN:54,_RNvMNtNtNtCs92oXZPd7plo_16cargo_quickstart8commands6doctor9reportingNtB2_16DiagnosticReport23diagnostics_by_severity
FN:40,_RNvMNtNtNtCs92oXZPd7plo_16cargo_quickstart8commands6doctor9reportingNtB2_16DiagnosticReport3new
FNDA:25,_RNCNvMNtNtNtCsj95mf2ixomG_16cargo_quickstart8commands6doctor9reportingNtB4_16DiagnosticReport10statistics0Ba_
FNDA:455,_RNCNvMNtNtNtCsj95mf2ixomG_16cargo_quickstart8commands6doctor9reportingNtB4_16DiagnosticReport23diagnostics_by_severitys_0Ba_
FNDA:25,_RNvMNtNtNtCsj95mf2ixomG_16cargo_quickstart8commands6doctor9reportingNtB2_16DiagnosticReport10add_result
FNDA:5,_RNvMNtNtNtCsj95mf2ixomG_16cargo_quickstart8commands6doctor9reportingNtB2_16DiagnosticReport10statistics
FNDA:5,_RNvMNtNtNtCsj95mf2ixomG_16cargo_quickstart8commands6doctor9reportingNtB2_16DiagnosticReport12health_score
FNDA:5,_RNvMNtNtNtCsj95mf2ixomG_16cargo_quickstart8commands6doctor9reportingNtB2_16DiagnosticReport23diagnostics_by_category
FNDA:35,_RNvMNtNtNtCsj95mf2ixomG_16cargo_quickstart8commands6doctor9reportingNtB2_16DiagnosticReport23diagnostics_by_severity
FNDA:5,_RNvMNtNtNtCsj95mf2ixomG_16cargo_quickstart8commands6doctor9reportingNtB2_16DiagnosticReport3new
FNDA:12,_RNCNvMNtNtNtCs92oXZPd7plo_16cargo_quickstart8commands6doctor9reportingNtB4_16DiagnosticReport10statistics0Ba_
FNDA:200,_RNCNvMNtNtNtCs92oXZPd7plo_16cargo_quickstart8commands6doctor9reportingNtB4_16DiagnosticReport23diagnostics_by_severitys_0Ba_
FNDA:12,_RNvMNtNtNtCs92oXZPd7plo_16cargo_quickstart8commands6doctor9reportingNtB2_16DiagnosticReport10add_result
FNDA:3,_RNvMNtNtNtCs92oXZPd7plo_16cargo_quickstart8commands6doctor9reportingNtB2_16DiagnosticReport10statistics
FNDA:3,_RNvMNtNtNtCs92oXZPd7plo_16cargo_quickstart8commands6doctor9reportingNtB2_16DiagnosticReport12health_score
FNDA:2,_RNvMNtNtNtCs92oXZPd7plo_16cargo_quickstart8commands6doctor9reportingNtB2_16DiagnosticReport23diagnostics_by_category
FNDA:23,_RNvMNtNtNtCs92oXZPd7plo_16cargo_quickstart8commands6doctor9reportingNtB2_16DiagnosticReport23diagnostics_by_severity
FNDA:3,_RNvMNtNtNtCs92oXZPd7plo_16cargo_quickstart8commands6doctor9reportingNtB2_16DiagnosticReport3new
FNF:8
FNH:8
DA:40,8
DA:41,8
DA:42,8
DA:43,8
DA:44,8
DA:45,8
DA:48,37
DA:49,37
DA:50,37
DA:51,37
DA:54,58
DA:55,58
DA:56,58
DA:57,58
DA:58,655
DA:59,58
DA:60,58
DA:63,7
DA:64,7
DA:66,42
DA:67,126
DA:68,91
DA:69,91
DA:70,91
DA:71,91
DA:74,7
DA:75,7
DA:78,8
DA:79,8
DA:80,8
DA:81,8
DA:83,8
DA:84,8
DA:85,0
DA:86,8
DA:89,8
DA:90,8
DA:91,8
DA:92,8
DA:93,8
DA:94,8
DA:97,8
DA:99,8
DA:100,37
DA:101,8
DA:102,8
DA:103,8
DA:104,8
DA:105,8
DA:107,8
BRF:0
BRH:0
LF:52
LH:51
end_of_record
SF:/Users/smeya/git/cargo-quickstart/crates/quickstart-cli/src/commands/doctor/types.rs
FN:38,_RNvXNtNtNtCsj95mf2ixomG_16cargo_quickstart8commands6doctor5typesNtB2_8SeverityNtNtCs6FgkbHSHiEg_4core3fmt7Display3fmt
FN:86,_RINvMs_NtNtNtCsj95mf2ixomG_16cargo_quickstart8commands6doctor5typesNtB5_10Diagnostic12with_detailsNtNtCsbWmXECNiIxc_5alloc6string6StringEBb_
FN:92,_RINvMs_NtNtNtCsj95mf2ixomG_16cargo_quickstart8commands6doctor5typesNtB5_10Diagnostic15with_suggestionNtNtCsbWmXECNiIxc_5alloc6string6StringEBb_
FN:92,_RINvMs_NtNtNtCsj95mf2ixomG_16cargo_quickstart8commands6doctor5typesNtB5_10Diagnostic15with_suggestionReEBb_
FN:68,_RINvMs_NtNtNtCsj95mf2ixomG_16cargo_quickstart8commands6doctor5typesNtB5_10Diagnostic3newReB1o_B1o_EBb_
FN:68,_RINvMs_NtNtNtCsj95mf2ixomG_16cargo_quickstart8commands6doctor5typesNtB5_10Diagnostic3newReNtNtCsbWmXECNiIxc_5alloc6string6StringB1o_EBb_
FN:86,_RINvMs_NtNtNtCs92oXZPd7plo_16cargo_quickstart8commands6doctor5typesNtB5_10Diagnostic12with_detailsNtNtCsbWmXECNiIxc_5alloc6string6StringEBb_
FN:86,_RINvMs_NtNtNtCs92oXZPd7plo_16cargo_quickstart8commands6doctor5typesNtB5_10Diagnostic12with_detailsReEBb_
FN:92,_RINvMs_NtNtNtCs92oXZPd7plo_16cargo_quickstart8commands6doctor5typesNtB5_10Diagnostic15with_suggestionNtNtCsbWmXECNiIxc_5alloc6string6StringEBb_
FN:92,_RINvMs_NtNtNtCs92oXZPd7plo_16cargo_quickstart8commands6doctor5typesNtB5_10Diagnostic15with_suggestionReEBb_
FN:68,_RINvMs_NtNtNtCs92oXZPd7plo_16cargo_quickstart8commands6doctor5typesNtB5_10Diagnostic3newReB1o_B1o_EBb_
FN:68,_RINvMs_NtNtNtCs92oXZPd7plo_16cargo_quickstart8commands6doctor5typesNtB5_10Diagnostic3newReNtNtCsbWmXECNiIxc_5alloc6string6StringB1o_EBb_
FN:38,_RNvXNtNtNtCs92oXZPd7plo_16cargo_quickstart8commands6doctor5typesNtB2_8SeverityNtNtCs6FgkbHSHiEg_4core3fmt7Display3fmt
FN:120,_RNvNtNtNtNtCs92oXZPd7plo_16cargo_quickstart8commands6doctor5types5testss_21test_severity_display
FN:128,_RNvNtNtNtNtCs92oXZPd7plo_16cargo_quickstart8commands6doctor5types5testss_22test_severity_ordering
FN:185,_RNvNtNtNtNtCs92oXZPd7plo_16cargo_quickstart8commands6doctor5types5testss_26test_diagnostic_full_chain
FN:159,_RNvNtNtNtNtCs92oXZPd7plo_16cargo_quickstart8commands6doctor5types5testss_28test_diagnostic_with_details
FN:142,_RNvNtNtNtNtCs92oXZPd7plo_16cargo_quickstart8commands6doctor5types5testss_30test_diagnostic_creation_basic
FN:172,_RNvNtNtNtNtCs92oXZPd7plo_16cargo_quickstart8commands6doctor5types5testss_31test_diagnostic_with_suggestion
FN:104,_RNvNtNtNtNtCs92oXZPd7plo_16cargo_quickstart8commands6doctor5types5testss_32test_health_thresholds_constants
FNDA:0,_RNvXNtNtNtCsj95mf2ixomG_16cargo_quickstart8commands6doctor5typesNtB2_8SeverityNtNtCs6FgkbHSHiEg_4core3fmt7Display3fmt
FNDA:5,_RINvMs_NtNtNtCsj95mf2ixomG_16cargo_quickstart8commands6doctor5typesNtB5_10Diagnostic12with_detailsNtNtCsbWmXECNiIxc_5alloc6string6StringEBb_
FNDA:12,_RINvMs_NtNtNtCsj95mf2ixomG_16cargo_quickstart8commands6doctor5typesNtB5_10Diagnostic15with_suggestionNtNtCsbWmXECNiIxc_5alloc6string6StringEBb_
FNDA:7,_RINvMs_NtNtNtCsj95mf2ixomG_16cargo_quickstart8commands6doctor5typesNtB5_10Diagnostic15with_suggestionReEBb_
FNDA:35,_RINvMs_NtNtNtCsj95mf2ixomG_16cargo_quickstart8commands6doctor5typesNtB5_10Diagnostic3newReB1o_B1o_EBb_
FNDA:30,_RINvMs_NtNtNtCsj95mf2ixomG_16cargo_quickstart8commands6doctor5typesNtB5_10Diagnostic3newReNtNtCsbWmXECNiIxc_5alloc6string6StringB1o_EBb_
FNDA:3,_RINvMs_NtNtNtCs92oXZPd7plo_16cargo_quickstart8commands6doctor5typesNtB5_10Diagnostic12with_detailsNtNtCsbWmXECNiIxc_5alloc6string6StringEBb_
FNDA:3,_RINvMs_NtNtNtCs92oXZPd7plo_16cargo_quickstart8commands6doctor5typesNtB5_10Diagnostic12with_detailsReEBb_
FNDA:13,_RINvMs_NtNtNtCs92oXZPd7plo_16cargo_quickstart8commands6doctor5typesNtB5_10Diagnostic15with_suggestionNtNtCsbWmXECNiIxc_5alloc6string6StringEBb_
FNDA:13,_RINvMs_NtNtNtCs92oXZPd7plo_16cargo_quickstart8commands6doctor5typesNtB5_10Diagnostic15with_suggestionReEBb_
FNDA:54,_RINvMs_NtNtNtCs92oXZPd7plo_16cargo_quickstart8commands6doctor5typesNtB5_10Diagnostic3newReB1o_B1o_EBb_
FNDA:32,_RINvMs_NtNtNtCs92oXZPd7plo_16cargo_quickstart8commands6doctor5typesNtB5_10Diagnostic3newReNtNtCsbWmXECNiIxc_5alloc6string6StringB1o_EBb_
FNDA:4,_RNvXNtNtNtCs92oXZPd7plo_16cargo_quickstart8commands6doctor5typesNtB2_8SeverityNtNtCs6FgkbHSHiEg_4core3fmt7Display3fmt
FNDA:1,_RNvNtNtNtNtCs92oXZPd7plo_16cargo_quickstart8commands6doctor5types5testss_21test_severity_display
FNDA:1,_RNvNtNtNtNtCs92oXZPd7plo_16cargo_quickstart8commands6doctor5types5testss_22test_severity_ordering
FNDA:1,_RNvNtNtNtNtCs92oXZPd7plo_16cargo_quickstart8commands6doctor5types5testss_26test_diagnostic_full_chain
FNDA:1,_RNvNtNtNtNtCs92oXZPd7plo_16cargo_quickstart8commands6doctor5types5testss_28test_diagnostic_with_details
FNDA:1,_RNvNtNtNtNtCs92oXZPd7plo_16cargo_quickstart8commands6doctor5types5testss_30test_diagnostic_creation_basic
FNDA:1,_RNvNtNtNtNtCs92oXZPd7plo_16cargo_quickstart8commands6doctor5types5testss_31test_diagnostic_with_suggestion
FNDA:1,_RNvNtNtNtNtCs92oXZPd7plo_16cargo_quickstart8commands6doctor5types5testss_32test_health_thresholds_constants
FNF:11
FNH:11
DA:38,4
DA:39,4
DA:40,1
DA:41,1
DA:42,1
DA:43,1
DA:45,4
DA:68,151
DA:69,151
DA:70,151
DA:71,151
DA:72,151
DA:73,151
DA:74,151
DA:75,151
DA:76,151
DA:77,151
DA:78,151
DA:79,151
DA:80,151
DA:81,151
DA:82,151
DA:86,11
DA:87,11
DA:88,11
DA:89,11
DA:92,45
DA:93,45
DA:94,45
DA:95,45
DA:104,1
DA:106,1
DA:107,1
DA:109,1
DA:110,1
DA:112,1
DA:113,1
DA:115,1
DA:116,1
DA:117,1
DA:120,1
DA:121,1
DA:122,1
DA:123,1
DA:124,1
DA:125,1
DA:128,1
DA:130,1
DA:131,1
DA:132,1
DA:135,1
DA:136,1
DA:137,1
DA:138,1
DA:139,1
DA:142,1
DA:143,1
DA:145,1
DA:150,1
DA:151,1
DA:152,1
DA:153,1
DA:154,1
DA:155,1
DA:156,1
DA:159,1
DA:160,1
DA:162,1
DA:166,1
DA:168,1
DA:169,1
DA:172,1
DA:173,1
DA:175,1
DA:179,1
DA:181,1
DA:182,1
DA:185,1
DA:186,1
DA:188,1
DA:192,1
DA:193,1
DA:195,1
DA:196,1
DA:197,1
DA:198,1
DA:199,1
DA:200,1
DA:201,1
BRF:0
BRH:0
LF:89
LH:89
end_of_record
SF:/Users/smeya/git/cargo-quickstart/crates/quickstart-cli/src/commands/init/config.rs
FN:20,_RNCNvNtNtNtCsj95mf2ixomG_16cargo_quickstart8commands4init6config16get_project_name0B9_
FN:12,_RNvNtNtNtCsj95mf2ixomG_16cargo_quickstart8commands4init6config16get_project_name
FN:55,_RNvNtNtNtCsj95mf2ixomG_16cargo_quickstart8commands4init6config20display_project_info
FN:32,_RNvNtNtNtCsj95mf2ixomG_16cargo_quickstart8commands4init6config22determine_project_type
FN:20,_RNCNvNtNtNtCs92oXZPd7plo_16cargo_quickstart8commands4init6config16get_project_name0B9_
FN:12,_RNvNtNtNtCs92oXZPd7plo_16cargo_quickstart8commands4init6config16get_project_name
FN:55,_RNvNtNtNtCs92oXZPd7plo_16cargo_quickstart8commands4init6config20display_project_info
FN:32,_RNvNtNtNtCs92oXZPd7plo_16cargo_quickstart8commands4init6config22determine_project_type
FNDA:0,_RNCNvNtNtNtCsj95mf2ixomG_16cargo_quickstart8commands4init6config16get_project_name0B9_
FNDA:0,_RNvNtNtNtCsj95mf2ixomG_16cargo_quickstart8commands4init6config16get_project_name
FNDA:0,_RNvNtNtNtCsj95mf2ixomG_16cargo_quickstart8commands4init6config20display_project_info
FNDA:0,_RNvNtNtNtCsj95mf2ixomG_16cargo_quickstart8commands4init6config22determine_project_type
FNDA:0,_RNCNvNtNtNtCs92oXZPd7plo_16cargo_quickstart8commands4init6config16get_project_name0B9_
FNDA:6,_RNvNtNtNtCs92oXZPd7plo_16cargo_quickstart8commands4init6config16get_project_name
FNDA:4,_RNvNtNtNtCs92oXZPd7plo_16cargo_quickstart8commands4init6config20display_project_info
FNDA:8,_RNvNtNtNtCs92oXZPd7plo_16cargo_quickstart8commands4init6config22determine_project_type
FNF:4
FNH:3
DA:12,6
DA:13,6
DA:14,5
DA:17,1
DA:18,1
DA:19,1
DA:20,1
DA:21,1
DA:23,1
DA:24,1
DA:26,0
DA:29,6
DA:32,8
DA:33,8
DA:34,1
DA:35,7
DA:36,5
DA:39,2
DA:40,2
DA:42,2
DA:43,0
DA:44,1
DA:47,1
DA:48,1
DA:52,8
DA:55,4
DA:56,4
DA:57,4
DA:58,4
DA:59,4
DA:60,4
DA:61,4
DA:62,4
DA:63,4
BRF:0
BRH:0
LF:35
LH:32
end_of_record
SF:/Users/smeya/git/cargo-quickstart/crates/quickstart-cli/src/commands/init/executor.rs
FN:15,_RNvNtNtNtCsj95mf2ixomG_16cargo_quickstart8commands4init8executor7execute
FN:48,_RNCNvNtNtNtCsj95mf2ixomG_16cargo_quickstart8commands4init8executor7execute0B9_
FN:48,_RNCNvNtNtNtCs92oXZPd7plo_16cargo_quickstart8commands4init8executor7execute0B9_
FN:15,_RNvNtNtNtCs92oXZPd7plo_16cargo_quickstart8commands4init8executor7execute
FNDA:0,_RNvNtNtNtCsj95mf2ixomG_16cargo_quickstart8commands4init8executor7execute
FNDA:0,_RNCNvNtNtNtCsj95mf2ixomG_16cargo_quickstart8commands4init8executor7execute0B9_
FNDA:3,_RNCNvNtNtNtCs92oXZPd7plo_16cargo_quickstart8commands4init8executor7execute0B9_
FNDA:4,_RNvNtNtNtCs92oXZPd7plo_16cargo_quickstart8commands4init8executor7execute
FNF:2
FNH:2
DA:15,4
DA:16,4
DA:19,4
DA:20,4
DA:23,4
DA:26,4
DA:27,2
DA:28,2
DA:29,1
DA:30,1
DA:31,2
DA:34,3
DA:35,3
DA:36,3
DA:37,3
DA:38,3
DA:39,3
DA:40,3
DA:41,3
DA:42,3
DA:45,3
DA:46,3
DA:47,3
DA:48,3
DA:50,4
BRF:0
BRH:0
LF:25
LH:25
end_of_record
SF:/Users/smeya/git/cargo-quickstart/crates/quickstart-cli/src/commands/init/inquire_api.rs
FN:119,_RINvXNtNtNtCsj95mf2ixomG_16cargo_quickstart8commands4init11inquire_apiNtB3_11RealInquireNtB3_10InquireApi11multiselectReEB9_
FN:63,_RINvXNtNtNtCsj95mf2ixomG_16cargo_quickstart8commands4init11inquire_apiNtB3_11RealInquireNtB3_10InquireApi20text_with_validationNCINvNtB5_11interactive25get_project_name_with_apiB16_E0EB9_
FN:88,_RINvXNtNtNtCsj95mf2ixomG_16cargo_quickstart8commands4init11inquire_apiNtB3_11RealInquireNtB3_10InquireApi6selectReEB9_
FN:138,_RNCINvXNtNtNtCsj95mf2ixomG_16cargo_quickstart8commands4init11inquire_apiNtB5_11RealInquireNtB5_10InquireApi11multiselectReE0Bb_
FN:139,_RNCINvXNtNtNtCsj95mf2ixomG_16cargo_quickstart8commands4init11inquire_apiNtB5_11RealInquireNtB5_10InquireApi11multiselectReEs_0Bb_
FN:71,_RNCINvXNtNtNtCsj95mf2ixomG_16cargo_quickstart8commands4init11inquire_apiNtB5_11RealInquireNtB5_10InquireApi20text_with_validationNCINvNtB7_11interactive25get_project_name_with_apiB18_E0E0Bb_
FN:85,_RNCINvXNtNtNtCsj95mf2ixomG_16cargo_quickstart8commands4init11inquire_apiNtB5_11RealInquireNtB5_10InquireApi20text_with_validationNCINvNtB7_11interactive25get_project_name_with_apiB18_E0Es_0Bb_
FN:102,_RNCINvXNtNtNtCsj95mf2ixomG_16cargo_quickstart8commands4init11inquire_apiNtB5_11RealInquireNtB5_10InquireApi6selectReE0Bb_
FN:103,_RNCINvXNtNtNtCsj95mf2ixomG_16cargo_quickstart8commands4init11inquire_apiNtB5_11RealInquireNtB5_10InquireApi6selectReEs_0Bb_
FN:143,_RNCNCINvXNtNtNtCsj95mf2ixomG_16cargo_quickstart8commands4init11inquire_apiNtB7_11RealInquireNtB7_10InquireApi11multiselectReEs_00Bd_
FN:107,_RNCNCINvXNtNtNtCsj95mf2ixomG_16cargo_quickstart8commands4init11inquire_apiNtB7_11RealInquireNtB7_10InquireApi6selectReEs_00Bd_
FN:146,_RNCNCNCINvXNtNtNtCsj95mf2ixomG_16cargo_quickstart8commands4init11inquire_apiNtB9_11RealInquireNtB9_10InquireApi11multiselectReEs_000Bf_
FN:60,_RNCNvXNtNtNtCsj95mf2ixomG_16cargo_quickstart8commands4init11inquire_apiNtB4_11RealInquireNtB4_10InquireApi4text0Ba_
FN:116,_RNCNvXNtNtNtCsj95mf2ixomG_16cargo_quickstart8commands4init11inquire_apiNtB4_11RealInquireNtB4_10InquireApi7confirm0Ba_
FN:51,_RNvXNtNtNtCsj95mf2ixomG_16cargo_quickstart8commands4init11inquire_apiNtB2_11RealInquireNtB2_10InquireApi4text
FN:112,_RNvXNtNtNtCsj95mf2ixomG_16cargo_quickstart8commands4init11inquire_apiNtB2_11RealInquireNtB2_10InquireApi7confirm
FN:119,_RINvXNtNtNtCs92oXZPd7plo_16cargo_quickstart8commands4init11inquire_apiNtB3_11RealInquireNtB3_10InquireApi11multiselectReEB9_
FN:63,_RINvXNtNtNtCs92oXZPd7plo_16cargo_quickstart8commands4init11inquire_apiNtB3_11RealInquireNtB3_10InquireApi20text_with_validationNCINvNtB5_11interactive25get_project_name_with_apiB16_E0EB9_
FN:88,_RINvXNtNtNtCs92oXZPd7plo_16cargo_quickstart8commands4init11inquire_apiNtB3_11RealInquireNtB3_10InquireApi6selectReEB9_
FN:284,_RINvXs0_NtNtNtCs92oXZPd7plo_16cargo_quickstart8commands4init11inquire_apiNtB6_11TestInquireNtB6_10InquireApi11multiselectReEBc_
FN:250,_RINvXs0_NtNtNtCs92oXZPd7plo_16cargo_quickstart8commands4init11inquire_apiNtB6_11TestInquireNtB6_10InquireApi20text_with_validationNCINvNtB8_11interactive25get_project_name_with_apiB19_E0EBc_
FN:250,_RINvXs0_NtNtNtCs92oXZPd7plo_16cargo_quickstart8commands4init11inquire_apiNtB6_11TestInquireNtB6_10InquireApi20text_with_validationNCNvNtB6_5testss_38test_test_inquire_text_with_validation0EBc_
FN:250,_RINvXs0_NtNtNtCs92oXZPd7plo_16cargo_quickstart8commands4init11inquire_apiNtB6_11TestInquireNtB6_10InquireApi20text_with_validationNCNvNtB6_5testss_38test_test_inquire_validation_with_help0EBc_
FN:250,_RINvXs0_NtNtNtCs92oXZPd7plo_16cargo_quickstart8commands4init11inquire_apiNtB6_11TestInquireNtB6_10InquireApi20text_with_validationNCNvNtB6_5testss_53test_test_inquire_text_with_validation_error_response0EBc_
FN:250,_RINvXs0_NtNtNtCs92oXZPd7plo_16cargo_quickstart8commands4init11inquire_apiNtB6_11TestInquireNtB6_10InquireApi20text_with_validationNCNvNtB6_5testss_59test_test_inquire_text_with_validation_error_from_validator0EBc_
FN:271,_RINvXs0_NtNtNtCs92oXZPd7plo_16cargo_quickstart8commands4init11inquire_apiNtB6_11TestInquireNtB6_10InquireApi6selectReEBc_
FN:138,_RNCINvXNtNtNtCs92oXZPd7plo_16cargo_quickstart8commands4init11inquire_apiNtB5_11RealInquireNtB5_10InquireApi11multiselectReE0Bb_
FN:139,_RNCINvXNtNtNtCs92oXZPd7plo_16cargo_quickstart8commands4init11inquire_apiNtB5_11RealInquireNtB5_10InquireApi11multiselectReEs_0Bb_
FN:71,_RNCINvXNtNtNtCs92oXZPd7plo_16cargo_quickstart8commands4init11inquire_apiNtB5_11RealInquireNtB5_10InquireApi20text_with_validationNCINvNtB7_11interactive25get_project_name_with_apiB18_E0E0Bb_
FN:85,_RNCINvXNtNtNtCs92oXZPd7plo_16cargo_quickstart8commands4init11inquire_apiNtB5_11RealInquireNtB5_10InquireApi20text_with_validationNCINvNtB7_11interactive25get_project_name_with_apiB18_E0Es_0Bb_
FN:102,_RNCINvXNtNtNtCs92oXZPd7plo_16cargo_quickstart8commands4init11inquire_apiNtB5_11RealInquireNtB5_10InquireApi6selectReE0Bb_
FN:103,_RNCINvXNtNtNtCs92oXZPd7plo_16cargo_quickstart8commands4init11inquire_apiNtB5_11RealInquireNtB5_10InquireApi6selectReEs_0Bb_
FN:143,_RNCNCINvXNtNtNtCs92oXZPd7plo_16cargo_quickstart8commands4init11inquire_apiNtB7_11RealInquireNtB7_10InquireApi11multiselectReEs_00Bd_
FN:107,_RNCNCINvXNtNtNtCs92oXZPd7plo_16cargo_quickstart8commands4init11inquire_apiNtB7_11RealInquireNtB7_10InquireApi6selectReEs_00Bd_
FN:146,_RNCNCNCINvXNtNtNtCs92oXZPd7plo_16cargo_quickstart8commands4init11inquire_apiNtB9_11RealInquireNtB9_10InquireApi11multiselectReEs_000Bf_
FN:216,_RNCNvMs_NtNtNtCs92oXZPd7plo_16cargo_quickstart8commands4init11inquire_apiNtB6_11TestInquire18next_text_response0Bc_
FN:224,_RNCNvMs_NtNtNtCs92oXZPd7plo_16cargo_quickstart8commands4init11inquire_apiNtB6_11TestInquire20next_select_response0Bc_
FN:232,_RNCNvMs_NtNtNtCs92oXZPd7plo_16cargo_quickstart8commands4init11inquire_apiNtB6_11TestInquire21next_confirm_response0Bc_
FN:240,_RNCNvMs_NtNtNtCs92oXZPd7plo_16cargo_quickstart8commands4init11inquire_apiNtB6_11TestInquire25next_multiselect_response0Bc_
FN:337,_RNCNvNtNtNtNtCs92oXZPd7plo_16cargo_quickstart8commands4init11inquire_api5testss_38test_test_inquire_text_with_validation0Bb_
FN:684,_RNCNvNtNtNtNtCs92oXZPd7plo_16cargo_quickstart8commands4init11inquire_api5testss_38test_test_inquire_validation_with_help0Bb_
FN:382,_RNCNvNtNtNtNtCs92oXZPd7plo_16cargo_quickstart8commands4init11inquire_api5testss_53test_test_inquire_text_with_validation_error_response0Bb_
FN:403,_RNCNvNtNtNtNtCs92oXZPd7plo_16cargo_quickstart8commands4init11inquire_api5testss_59test_test_inquire_text_with_validation_error_from_validator0Bb_
FN:60,_RNCNvXNtNtNtCs92oXZPd7plo_16cargo_quickstart8commands4init11inquire_apiNtB4_11RealInquireNtB4_10InquireApi4text0Ba_
FN:116,_RNCNvXNtNtNtCs92oXZPd7plo_16cargo_quickstart8commands4init11inquire_apiNtB4_11RealInquireNtB4_10InquireApi7confirm0Ba_
FN:199,_RNvMs_NtNtNtCs92oXZPd7plo_16cargo_quickstart8commands4init11inquire_apiNtB4_11TestInquire10add_select
FN:203,_RNvMs_NtNtNtCs92oXZPd7plo_16cargo_quickstart8commands4init11inquire_apiNtB4_11TestInquire11add_confirm
FN:207,_RNvMs_NtNtNtCs92oXZPd7plo_16cargo_quickstart8commands4init11inquire_apiNtB4_11TestInquire15add_multiselect
FN:212,_RNvMs_NtNtNtCs92oXZPd7plo_16cargo_quickstart8commands4init11inquire_apiNtB4_11TestInquire18next_text_response
FN:175,_RNvMs_NtNtNtCs92oXZPd7plo_16cargo_quickstart8commands4init11inquire_apiNtB4_11TestInquire19queue_text_response
FN:220,_RNvMs_NtNtNtCs92oXZPd7plo_16cargo_quickstart8commands4init11inquire_apiNtB4_11TestInquire20next_select_response
FN:228,_RNvMs_NtNtNtCs92oXZPd7plo_16cargo_quickstart8commands4init11inquire_apiNtB4_11TestInquire21next_confirm_response
FN:180,_RNvMs_NtNtNtCs92oXZPd7plo_16cargo_quickstart8commands4init11inquire_apiNtB4_11TestInquire21queue_select_response
FN:185,_RNvMs_NtNtNtCs92oXZPd7plo_16cargo_quickstart8commands4init11inquire_apiNtB4_11TestInquire22queue_confirm_response
FN:236,_RNvMs_NtNtNtCs92oXZPd7plo_16cargo_quickstart8commands4init11inquire_apiNtB4_11TestInquire25next_multiselect_response
FN:190,_RNvMs_NtNtNtCs92oXZPd7plo_16cargo_quickstart8commands4init11inquire_apiNtB4_11TestInquire26queue_multiselect_response
FN:165,_RNvMs_NtNtNtCs92oXZPd7plo_16cargo_quickstart8commands4init11inquire_apiNtB4_11TestInquire3new
FN:195,_RNvMs_NtNtNtCs92oXZPd7plo_16cargo_quickstart8commands4init11inquire_apiNtB4_11TestInquire8add_text
FN:51,_RNvXNtNtNtCs92oXZPd7plo_16cargo_quickstart8commands4init11inquire_apiNtB2_11RealInquireNtB2_10InquireApi4text
FN:112,_RNvXNtNtNtCs92oXZPd7plo_16cargo_quickstart8commands4init11inquire_apiNtB2_11RealInquireNtB2_10InquireApi7confirm
FN:246,_RNvXs0_NtNtNtCs92oXZPd7plo_16cargo_quickstart8commands4init11inquire_apiNtB5_11TestInquireNtB5_10InquireApi4text
FN:280,_RNvXs0_NtNtNtCs92oXZPd7plo_16cargo_quickstart8commands4init11inquire_apiNtB5_11TestInquireNtB5_10InquireApi7confirm
FN:300,_RNvNtNtNtNtCs92oXZPd7plo_16cargo_quickstart8commands4init11inquire_api5testss_22test_test_inquire_text
FN:420,_RNvNtNtNtNtCs92oXZPd7plo_16cargo_quickstart8commands4init11inquire_api5testss_24test_test_inquire_select
FN:470,_RNvNtNtNtNtCs92oXZPd7plo_16cargo_quickstart8commands4init11inquire_api5testss_25test_test_inquire_confirm
FN:317,_RNvNtNtNtNtCs92oXZPd7plo_16cargo_quickstart8commands4init11inquire_api5testss_28test_test_inquire_text_error
FN:517,_RNvNtNtNtNtCs92oXZPd7plo_16cargo_quickstart8commands4init11inquire_api5testss_29test_test_inquire_multiselect
FN:438,_RNvNtNtNtNtCs92oXZPd7plo_16cargo_quickstart8commands4init11inquire_api5testss_30test_test_inquire_select_error
FN:487,_RNvNtNtNtNtCs92oXZPd7plo_16cargo_quickstart8commands4init11inquire_api5testss_31test_test_inquire_confirm_error
FN:500,_RNvNtNtNtNtCs92oXZPd7plo_16cargo_quickstart8commands4init11inquire_api5testss_31test_test_inquire_confirm_false
FN:662,_RNvNtNtNtNtCs92oXZPd7plo_16cargo_quickstart8commands4init11inquire_api5testss_32test_test_inquire_with_help_text
FN:452,_RNvNtNtNtNtCs92oXZPd7plo_16cargo_quickstart8commands4init11inquire_api5testss_34test_test_inquire_select_with_help
FN:701,_RNvNtNtNtNtCs92oXZPd7plo_16cargo_quickstart8commands4init11inquire_api5testss_34test_test_inquire_text_explicit_ok
FN:535,_RNvNtNtNtNtCs92oXZPd7plo_16cargo_quickstart8commands4init11inquire_api5testss_35test_test_inquire_multiselect_error
FN:609,_RNvNtNtNtNtCs92oXZPd7plo_16cargo_quickstart8commands4init11inquire_api5testss_38test_test_inquire_empty_queue_handling
FN:330,_RNvNtNtNtNtCs92oXZPd7plo_16cargo_quickstart8commands4init11inquire_api5testss_38test_test_inquire_text_with_validation
FN:677,_RNvNtNtNtNtCs92oXZPd7plo_16cargo_quickstart8commands4init11inquire_api5testss_38test_test_inquire_validation_with_help
FN:572,_RNvNtNtNtNtCs92oXZPd7plo_16cargo_quickstart8commands4init11inquire_api5testss_39test_test_inquire_queue_error_responses
FN:633,_RNvNtNtNtNtCs92oXZPd7plo_16cargo_quickstart8commands4init11inquire_api5testss_41test_test_inquire_multiple_text_responses
FN:716,_RNvNtNtNtNtCs92oXZPd7plo_16cargo_quickstart8commands4init11inquire_api5testss_44test_test_inquire_mixed_errors_and_successes
FN:549,_RNvNtNtNtNtCs92oXZPd7plo_16cargo_quickstart8commands4init11inquire_api5testss_52test_test_inquire_multiselect_with_defaults_and_help
FN:376,_RNvNtNtNtNtCs92oXZPd7plo_16cargo_quickstart8commands4init11inquire_api5testss_53test_test_inquire_text_with_validation_error_response
FN:396,_RNvNtNtNtNtCs92oXZPd7plo_16cargo_quickstart8commands4init11inquire_api5testss_59test_test_inquire_text_with_validation_error_from_validator
FNDA:0,_RINvXNtNtNtCsj95mf2ixomG_16cargo_quickstart8commands4init11inquire_apiNtB3_11RealInquireNtB3_10InquireApi11multiselectReEB9_
FNDA:0,_RINvXNtNtNtCsj95mf2ixomG_16cargo_quickstart8commands4init11inquire_apiNtB3_11RealInquireNtB3_10InquireApi20text_with_validationNCINvNtB5_11interactive25get_project_name_with_apiB16_E0EB9_
FNDA:0,_RINvXNtNtNtCsj95mf2ixomG_16cargo_quickstart8commands4init11inquire_apiNtB3_11RealInquireNtB3_10InquireApi6selectReEB9_
FNDA:0,_RNCINvXNtNtNtCsj95mf2ixomG_16cargo_quickstart8commands4init11inquire_apiNtB5_11RealInquireNtB5_10InquireApi11multiselectReE0Bb_
FNDA:0,_RNCINvXNtNtNtCsj95mf2ixomG_16cargo_quickstart8commands4init11inquire_apiNtB5_11RealInquireNtB5_10InquireApi11multiselectReEs_0Bb_
FNDA:0,_RNCINvXNtNtNtCsj95mf2ixomG_16cargo_quickstart8commands4init11inquire_apiNtB5_11RealInquireNtB5_10InquireApi20text_with_validationNCINvNtB7_11interactive25get_project_name_with_apiB18_E0E0Bb_
FNDA:0,_RNCINvXNtNtNtCsj95mf2ixomG_16cargo_quickstart8commands4init11inquire_apiNtB5_11RealInquireNtB5_10InquireApi20text_with_validationNCINvNtB7_11interactive25get_project_name_with_apiB18_E0Es_0Bb_
FNDA:0,_RNCINvXNtNtNtCsj95mf2ixomG_16cargo_quickstart8commands4init11inquire_apiNtB5_11RealInquireNtB5_10InquireApi6selectReE0Bb_
FNDA:0,_RNCINvXNtNtNtCsj95mf2ixomG_16cargo_quickstart8commands4init11inquire_apiNtB5_11RealInquireNtB5_10InquireApi6selectReEs_0Bb_
FNDA:0,_RNCNCINvXNtNtNtCsj95mf2ixomG_16cargo_quickstart8commands4init11inquire_apiNtB7_11RealInquireNtB7_10InquireApi11multiselectReEs_00Bd_
FNDA:0,_RNCNCINvXNtNtNtCsj95mf2ixomG_16cargo_quickstart8commands4init11inquire_apiNtB7_11RealInquireNtB7_10InquireApi6selectReEs_00Bd_
FNDA:0,_RNCNCNCINvXNtNtNtCsj95mf2ixomG_16cargo_quickstart8commands4init11inquire_apiNtB9_11RealInquireNtB9_10InquireApi11multiselectReEs_000Bf_
FNDA:0,_RNCNvXNtNtNtCsj95mf2ixomG_16cargo_quickstart8commands4init11inquire_apiNtB4_11RealInquireNtB4_10InquireApi4text0Ba_
FNDA:0,_RNCNvXNtNtNtCsj95mf2ixomG_16cargo_quickstart8commands4init11inquire_apiNtB4_11RealInquireNtB4_10InquireApi7confirm0Ba_
FNDA:0,_RNvXNtNtNtCsj95mf2ixomG_16cargo_quickstart8commands4init11inquire_apiNtB2_11RealInquireNtB2_10InquireApi4text
FNDA:0,_RNvXNtNtNtCsj95mf2ixomG_16cargo_quickstart8commands4init11inquire_apiNtB2_11RealInquireNtB2_10InquireApi7confirm
FNDA:0,_RINvXNtNtNtCs92oXZPd7plo_16cargo_quickstart8commands4init11inquire_apiNtB3_11RealInquireNtB3_10InquireApi11multiselectReEB9_
FNDA:0,_RINvXNtNtNtCs92oXZPd7plo_16cargo_quickstart8commands4init11inquire_apiNtB3_11RealInquireNtB3_10InquireApi20text_with_validationNCINvNtB5_11interactive25get_project_name_with_apiB16_E0EB9_
FNDA:0,_RINvXNtNtNtCs92oXZPd7plo_16cargo_quickstart8commands4init11inquire_apiNtB3_11RealInquireNtB3_10InquireApi6selectReEB9_
FNDA:10,_RINvXs0_NtNtNtCs92oXZPd7plo_16cargo_quickstart8commands4init11inquire_apiNtB6_11TestInquireNtB6_10InquireApi11multiselectReEBc_
FNDA:5,_RINvXs0_NtNtNtCs92oXZPd7plo_16cargo_quickstart8commands4init11inquire_apiNtB6_11TestInquireNtB6_10InquireApi20text_with_validationNCINvNtB8_11interactive25get_project_name_with_apiB19_E0EBc_
FNDA:2,_RINvXs0_NtNtNtCs92oXZPd7plo_16cargo_quickstart8commands4init11inquire_apiNtB6_11TestInquireNtB6_10InquireApi20text_with_validationNCNvNtB6_5testss_38test_test_inquire_text_with_validation0EBc_
FNDA:1,_RINvXs0_NtNtNtCs92oXZPd7plo_16cargo_quickstart8commands4init11inquire_apiNtB6_11TestInquireNtB6_10InquireApi20text_with_validationNCNvNtB6_5testss_38test_test_inquire_validation_with_help0EBc_
FNDA:1,_RINvXs0_NtNtNtCs92oXZPd7plo_16cargo_quickstart8commands4init11inquire_apiNtB6_11TestInquireNtB6_10InquireApi20text_with_validationNCNvNtB6_5testss_53test_test_inquire_text_with_validation_error_response0EBc_
FNDA:1,_RINvXs0_NtNtNtCs92oXZPd7plo_16cargo_quickstart8commands4init11inquire_apiNtB6_11TestInquireNtB6_10InquireApi20text_with_validationNCNvNtB6_5testss_59test_test_inquire_text_with_validation_error_from_validator0EBc_
FNDA:20,_RINvXs0_NtNtNtCs92oXZPd7plo_16cargo_quickstart8commands4init11inquire_apiNtB6_11TestInquireNtB6_10InquireApi6selectReEBc_
FNDA:0,_RNCINvXNtNtNtCs92oXZPd7plo_16cargo_quickstart8commands4init11inquire_apiNtB5_11RealInquireNtB5_10InquireApi11multiselectReE0Bb_
FNDA:0,_RNCINvXNtNtNtCs92oXZPd7plo_16cargo_quickstart8commands4init11inquire_apiNtB5_11RealInquireNtB5_10InquireApi11multiselectReEs_0Bb_
FNDA:0,_RNCINvXNtNtNtCs92oXZPd7plo_16cargo_quickstart8commands4init11inquire_apiNtB5_11RealInquireNtB5_10InquireApi20text_with_validationNCINvNtB7_11interactive25get_project_name_with_apiB18_E0E0Bb_
FNDA:0,_RNCINvXNtNtNtCs92oXZPd7plo_16cargo_quickstart8commands4init11inquire_apiNtB5_11RealInquireNtB5_10InquireApi20text_with_validationNCINvNtB7_11interactive25get_project_name_with_apiB18_E0Es_0Bb_
FNDA:0,_RNCINvXNtNtNtCs92oXZPd7plo_16cargo_quickstart8commands4init11inquire_apiNtB5_11RealInquireNtB5_10InquireApi6selectReE0Bb_
FNDA:0,_RNCINvXNtNtNtCs92oXZPd7plo_16cargo_quickstart8commands4init11inquire_apiNtB5_11RealInquireNtB5_10InquireApi6selectReEs_0Bb_
FNDA:0,_RNCNCINvXNtNtNtCs92oXZPd7plo_16cargo_quickstart8commands4init11inquire_apiNtB7_11RealInquireNtB7_10InquireApi11multiselectReEs_00Bd_
FNDA:0,_RNCNCINvXNtNtNtCs92oXZPd7plo_16cargo_quickstart8commands4init11inquire_apiNtB7_11RealInquireNtB7_10InquireApi6selectReEs_00Bd_
FNDA:0,_RNCNCNCINvXNtNtNtCs92oXZPd7plo_16cargo_quickstart8commands4init11inquire_apiNtB9_11RealInquireNtB9_10InquireApi11multiselectReEs_000Bf_
FNDA:2,_RNCNvMs_NtNtNtCs92oXZPd7plo_16cargo_quickstart8commands4init11inquire_apiNtB6_11TestInquire18next_text_response0Bc_
FNDA:2,_RNCNvMs_NtNtNtCs92oXZPd7plo_16cargo_quickstart8commands4init11inquire_apiNtB6_11TestInquire20next_select_response0Bc_
FNDA:2,_RNCNvMs_NtNtNtCs92oXZPd7plo_16cargo_quickstart8commands4init11inquire_apiNtB6_11TestInquire21next_confirm_response0Bc_
FNDA:2,_RNCNvMs_NtNtNtCs92oXZPd7plo_16cargo_quickstart8commands4init11inquire_apiNtB6_11TestInquire25next_multiselect_response0Bc_
FNDA:2,_RNCNvNtNtNtNtCs92oXZPd7plo_16cargo_quickstart8commands4init11inquire_api5testss_38test_test_inquire_text_with_validation0Bb_
FNDA:1,_RNCNvNtNtNtNtCs92oXZPd7plo_16cargo_quickstart8commands4init11inquire_api5testss_38test_test_inquire_validation_with_help0Bb_
FNDA:0,_RNCNvNtNtNtNtCs92oXZPd7plo_16cargo_quickstart8commands4init11inquire_api5testss_53test_test_inquire_text_with_validation_error_response0Bb_
FNDA:1,_RNCNvNtNtNtNtCs92oXZPd7plo_16cargo_quickstart8commands4init11inquire_api5testss_59test_test_inquire_text_with_validation_error_from_validator0Bb_
FNDA:0,_RNCNvXNtNtNtCs92oXZPd7plo_16cargo_quickstart8commands4init11inquire_apiNtB4_11RealInquireNtB4_10InquireApi4text0Ba_
FNDA:0,_RNCNvXNtNtNtCs92oXZPd7plo_16cargo_quickstart8commands4init11inquire_apiNtB4_11RealInquireNtB4_10InquireApi7confirm0Ba_
FNDA:17,_RNvMs_NtNtNtCs92oXZPd7plo_16cargo_quickstart8commands4init11inquire_apiNtB4_11TestInquire10add_select
FNDA:11,_RNvMs_NtNtNtCs92oXZPd7plo_16cargo_quickstart8commands4init11inquire_apiNtB4_11TestInquire11add_confirm
FNDA:7,_RNvMs_NtNtNtCs92oXZPd7plo_16cargo_quickstart8commands4init11inquire_apiNtB4_11TestInquire15add_multiselect
FNDA:24,_RNvMs_NtNtNtCs92oXZPd7plo_16cargo_quickstart8commands4init11inquire_apiNtB4_11TestInquire18next_text_response
FNDA:22,_RNvMs_NtNtNtCs92oXZPd7plo_16cargo_quickstart8commands4init11inquire_apiNtB4_11TestInquire19queue_text_response
FNDA:20,_RNvMs_NtNtNtCs92oXZPd7plo_16cargo_quickstart8commands4init11inquire_apiNtB4_11TestInquire20next_select_response
FNDA:14,_RNvMs_NtNtNtCs92oXZPd7plo_16cargo_quickstart8commands4init11inquire_apiNtB4_11TestInquire21next_confirm_response
FNDA:18,_RNvMs_NtNtNtCs92oXZPd7plo_16cargo_quickstart8commands4init11inquire_apiNtB4_11TestInquire21queue_select_response
FNDA:12,_RNvMs_NtNtNtCs92oXZPd7plo_16cargo_quickstart8commands4init11inquire_apiNtB4_11TestInquire22queue_confirm_response
FNDA:10,_RNvMs_NtNtNtCs92oXZPd7plo_16cargo_quickstart8commands4init11inquire_apiNtB4_11TestInquire25next_multiselect_response
FNDA:8,_RNvMs_NtNtNtCs92oXZPd7plo_16cargo_quickstart8commands4init11inquire_apiNtB4_11TestInquire26queue_multiselect_response
FNDA:33,_RNvMs_NtNtNtCs92oXZPd7plo_16cargo_quickstart8commands4init11inquire_apiNtB4_11TestInquire3new
FNDA:18,_RNvMs_NtNtNtCs92oXZPd7plo_16cargo_quickstart8commands4init11inquire_apiNtB4_11TestInquire8add_text
FNDA:0,_RNvXNtNtNtCs92oXZPd7plo_16cargo_quickstart8commands4init11inquire_apiNtB2_11RealInquireNtB2_10InquireApi4text
FNDA:0,_RNvXNtNtNtCs92oXZPd7plo_16cargo_quickstart8commands4init11inquire_apiNtB2_11RealInquireNtB2_10InquireApi7confirm
FNDA:14,_RNvXs0_NtNtNtCs92oXZPd7plo_16cargo_quickstart8commands4init11inquire_apiNtB5_11TestInquireNtB5_10InquireApi4text
FNDA:14,_RNvXs0_NtNtNtCs92oXZPd7plo_16cargo_quickstart8commands4init11inquire_apiNtB5_11TestInquireNtB5_10InquireApi7confirm
FNDA:1,_RNvNtNtNtNtCs92oXZPd7plo_16cargo_quickstart8commands4init11inquire_api5testss_22test_test_inquire_text
FNDA:1,_RNvNtNtNtNtCs92oXZPd7plo_16cargo_quickstart8commands4init11inquire_api5testss_24test_test_inquire_select
FNDA:1,_RNvNtNtNtNtCs92oXZPd7plo_16cargo_quickstart8commands4init11inquire_api5testss_25test_test_inquire_confirm
FNDA:1,_RNvNtNtNtNtCs92oXZPd7plo_16cargo_quickstart8commands4init11inquire_api5testss_28test_test_inquire_text_error
FNDA:1,_RNvNtNtNtNtCs92oXZPd7plo_16cargo_quickstart8commands4init11inquire_api5testss_29test_test_inquire_multiselect
FNDA:1,_RNvNtNtNtNtCs92oXZPd7plo_16cargo_quickstart8commands4init11inquire_api5testss_30test_test_inquire_select_error
FNDA:1,_RNvNtNtNtNtCs92oXZPd7plo_16cargo_quickstart8commands4init11inquire_api5testss_31test_test_inquire_confirm_error
FNDA:1,_RNvNtNtNtNtCs92oXZPd7plo_16cargo_quickstart8commands4init11inquire_api5testss_31test_test_inquire_confirm_false
FNDA:1,_RNvNtNtNtNtCs92oXZPd7plo_16cargo_quickstart8commands4init11inquire_api5testss_32test_test_inquire_with_help_text
FNDA:1,_RNvNtNtNtNtCs92oXZPd7plo_16cargo_quickstart8commands4init11inquire_api5testss_34test_test_inquire_select_with_help
FNDA:1,_RNvNtNtNtNtCs92oXZPd7plo_16cargo_quickstart8commands4init11inquire_api5testss_34test_test_inquire_text_explicit_ok
FNDA:1,_RNvNtNtNtNtCs92oXZPd7plo_16cargo_quickstart8commands4init11inquire_api5testss_35test_test_inquire_multiselect_error
FNDA:1,_RNvNtNtNtNtCs92oXZPd7plo_16cargo_quickstart8commands4init11inquire_api5testss_38test_test_inquire_empty_queue_handling
FNDA:1,_RNvNtNtNtNtCs92oXZPd7plo_16cargo_quickstart8commands4init11inquire_api5testss_38test_test_inquire_text_with_validation
FNDA:1,_RNvNtNtNtNtCs92oXZPd7plo_16cargo_quickstart8commands4init11inquire_api5testss_38test_test_inquire_validation_with_help
FNDA:1,_RNvNtNtNtNtCs92oXZPd7plo_16cargo_quickstart8commands4init11inquire_api5testss_39test_test_inquire_queue_error_responses
FNDA:1,_RNvNtNtNtNtCs92oXZPd7plo_16cargo_quickstart8commands4init11inquire_api5testss_41test_test_inquire_multiple_text_responses
FNDA:1,_RNvNtNtNtNtCs92oXZPd7plo_16cargo_quickstart8commands4init11inquire_api5testss_44test_test_inquire_mixed_errors_and_successes
FNDA:1,_RNvNtNtNtNtCs92oXZPd7plo_16cargo_quickstart8commands4init11inquire_api5testss_52test_test_inquire_multiselect_with_defaults_and_help
FNDA:1,_RNvNtNtNtNtCs92oXZPd7plo_16cargo_quickstart8commands4init11inquire_api5testss_53test_test_inquire_text_with_validation_error_response
FNDA:1,_RNvNtNtNtNtCs92oXZPd7plo_16cargo_quickstart8commands4init11inquire_api5testss_59test_test_inquire_text_with_validation_error_from_validator
FNF:63
FNH:46
DA:51,0
DA:52,0
DA:54,0
DA:55,0
DA:56,0
DA:58,0
DA:59,0
DA:60,0
DA:61,0
DA:63,0
DA:64,0
DA:65,0
DA:66,0
DA:67,0
DA:68,0
DA:69,0
DA:70,0
DA:71,0
DA:72,0
DA:73,0
DA:74,0
DA:76,0
DA:77,0
DA:79,0
DA:80,0
DA:81,0
DA:83,0
DA:84,0
DA:85,0
DA:86,0
DA:88,0
DA:89,0
DA:90,0
DA:91,0
DA:92,0
DA:93,0
DA:94,0
DA:96,0
DA:97,0
DA:98,0
DA:100,0
DA:101,0
DA:102,0
DA:103,0
DA:105,0
DA:106,0
DA:107,0
DA:108,0
DA:109,0
DA:110,0
DA:112,0
DA:113,0
DA:114,0
DA:115,0
DA:116,0
DA:117,0
DA:119,0
DA:120,0
DA:121,0
DA:122,0
DA:123,0
DA:124,0
DA:125,0
DA:126,0
DA:128,0
DA:129,0
DA:130,0
DA:132,0
DA:133,0
DA:134,0
DA:136,0
DA:137,0
DA:138,0
DA:139,0
DA:141,0
DA:142,0
DA:143,0
DA:144,0
DA:145,0
DA:146,0
DA:147,0
DA:148,0
DA:149,0
DA:150,0
DA:165,33
DA:166,33
DA:167,33
DA:168,33
DA:169,33
DA:170,33
DA:171,33
DA:172,33
DA:175,22
DA:176,22
DA:177,22
DA:180,18
DA:181,18
DA:182,18
DA:185,12
DA:186,12
DA:187,12
DA:190,8
DA:191,8
DA:192,8
DA:195,18
DA:196,18
DA:197,18
DA:199,17
DA:200,17
DA:201,17
DA:203,11
DA:204,11
DA:205,11
DA:207,7
DA:208,7
DA:209,7
DA:212,24
DA:213,24
DA:214,24
DA:215,24
DA:216,24
DA:217,24
DA:220,20
DA:221,20
DA:222,20
DA:223,20
DA:224,20
DA:225,20
DA:228,14
DA:229,14
DA:230,14
DA:231,14
DA:232,14
DA:233,14
DA:236,10
DA:237,10
DA:238,10
DA:239,10
DA:240,10
DA:241,10
DA:246,14
DA:247,14
DA:248,14
DA:250,10
DA:251,10
DA:252,10
DA:253,10
DA:254,10
DA:255,10
DA:256,10
DA:257,10
DA:260,9
DA:261,8
DA:262,6
DA:264,2
DA:267,1
DA:269,10
DA:271,20
DA:272,20
DA:273,20
DA:274,20
DA:275,20
DA:276,20
DA:277,20
DA:278,20
DA:280,14
DA:281,14
DA:282,14
DA:284,10
DA:285,10
DA:286,10
DA:287,10
DA:288,10
DA:289,10
DA:290,10
DA:291,10
DA:292,10
DA:300,1
DA:301,1
DA:304,1
DA:307,1
DA:308,1
DA:309,1
DA:310,1
DA:312,0
DA:314,1
DA:317,1
DA:318,1
DA:321,1
DA:322,1
DA:323,1
DA:324,1
DA:325,1
DA:326,1
DA:327,1
DA:330,1
DA:331,1
DA:334,1
DA:337,2
DA:338,2
DA:339,1
DA:341,1
DA:343,2
DA:346,1
DA:347,1
DA:348,1
DA:349,1
DA:350,1
DA:352,1
DA:353,1
DA:354,1
DA:356,0
DA:360,1
DA:361,1
DA:362,1
DA:363,1
DA:364,1
DA:365,1
DA:367,1
DA:368,1
DA:369,1
DA:371,0
DA:373,1
DA:376,1
DA:377,1
DA:380,1
DA:382,1
DA:385,1
DA:386,1
DA:387,1
DA:388,1
DA:389,1
DA:391,1
DA:392,1
DA:393,1
DA:396,1
DA:397,1
DA:400,1
DA:403,1
DA:406,1
DA:407,1
DA:408,1
DA:409,1
DA:410,1
DA:412,1
DA:413,1
DA:414,1
DA:415,1
DA:416,1
DA:417,1
DA:420,1
DA:421,1
DA:424,1
DA:427,1
DA:428,1
DA:429,1
DA:430,1
DA:431,1
DA:433,0
DA:435,1
DA:438,1
DA:439,1
DA:442,1
DA:443,1
DA:444,1
DA:445,1
DA:446,1
DA:447,1
DA:448,1
DA:449,1
DA:452,1
DA:453,1
DA:456,1
DA:459,1
DA:460,1
DA:461,1
DA:462,1
DA:463,1
DA:465,0
DA:467,1
DA:470,1
DA:471,1
DA:474,1
DA:477,1
DA:478,1
DA:479,1
DA:480,1
DA:482,0
DA:484,1
DA:487,1
DA:488,1
DA:491,1
DA:492,1
DA:493,1
DA:494,1
DA:495,1
DA:496,1
DA:497,1
DA:500,1
DA:501,1
DA:504,1
DA:507,1
DA:508,1
DA:509,1
DA:510,1
DA:512,0
DA:514,1
DA:517,1
DA:518,1
DA:521,1
DA:524,1
DA:525,1
DA:526,1
DA:527,1
DA:528,1
DA:530,0
DA:532,1
DA:535,1
DA:536,1
DA:539,1
DA:540,1
DA:541,1
DA:542,1
DA:543,1
DA:544,1
DA:545,1
DA:546,1
DA:549,1
DA:550,1
DA:553,1
DA:556,1
DA:557,1
DA:558,1
DA:559,1
DA:560,1
DA:561,1
DA:563,1
DA:564,1
DA:565,1
DA:567,0
DA:569,1
DA:572,1
DA:573,1
DA:576,1
DA:577,1
DA:578,1
DA:579,1
DA:582,1
DA:583,1
DA:584,1
DA:585,1
DA:586,1
DA:588,1
DA:589,1
DA:590,1
DA:591,1
DA:592,1
DA:593,1
DA:595,1
DA:596,1
DA:597,1
DA:598,1
DA:599,1
DA:601,1
DA:602,1
DA:603,1
DA:604,1
DA:605,1
DA:606,1
DA:609,1
DA:610,1
DA:613,1
DA:614,1
DA:615,1
DA:616,1
DA:619,1
DA:620,1
DA:621,1
DA:622,1
DA:623,1
DA:626,1
DA:627,1
DA:628,1
DA:629,1
DA:630,1
DA:633,1
DA:634,1
DA:637,1
DA:638,1
DA:639,1
DA:642,1
DA:643,1
DA:644,1
DA:645,1
DA:646,0
DA:648,1
DA:649,1
DA:650,1
DA:651,1
DA:652,0
DA:654,1
DA:655,1
DA:656,1
DA:657,1
DA:658,0
DA:659,1
DA:662,1
DA:663,1
DA:666,1
DA:669,1
DA:670,1
DA:671,1
DA:672,1
DA:673,0
DA:674,1
DA:677,1
DA:678,1
DA:681,1
DA:684,1
DA:687,1
DA:688,1
DA:689,1
DA:690,1
DA:691,1
DA:694,1
DA:695,1
DA:696,1
DA:697,0
DA:698,1
DA:701,1
DA:702,1
DA:705,1
DA:708,1
DA:709,1
DA:710,1
DA:711,1
DA:712,0
DA:713,1
DA:716,1
DA:717,1
DA:720,1
DA:721,1
DA:722,1
DA:725,1
DA:726,1
DA:727,1
DA:728,1
DA:729,0
DA:731,1
DA:732,1
DA:733,1
DA:734,1
DA:735,0
DA:737,1
DA:738,1
DA:739,1
DA:740,1
DA:741,0
DA:742,1
BRF:0
BRH:0
LF:478
LH:363
end_of_record
SF:/Users/smeya/git/cargo-quickstart/crates/quickstart-cli/src/commands/init/interactive.rs
FN:19,_RINvNtNtNtCsj95mf2ixomG_16cargo_quickstart8commands4init11interactive19run_wizard_with_apiNtNtB4_11inquire_api11RealInquireEB8_
FN:165,_RINvNtNtNtCsj95mf2ixomG_16cargo_quickstart8commands4init11interactive20get_license_with_apiNtNtB4_11inquire_api11RealInquireEB8_
FN:202,_RINvNtNtNtCsj95mf2ixomG_16cargo_quickstart8commands4init11interactive21get_git_init_with_apiNtNtB4_11inquire_api11RealInquireEB8_
FN:102,_RINvNtNtNtCsj95mf2ixomG_16cargo_quickstart8commands4init11interactive25get_project_name_with_apiNtNtB4_11inquire_api11RealInquireEB8_
FN:127,_RINvNtNtNtCsj95mf2ixomG_16cargo_quickstart8commands4init11interactive25get_project_type_with_apiNtNtB4_11inquire_api11RealInquireEB8_
FN:145,_RINvNtNtNtCsj95mf2ixomG_16cargo_quickstart8commands4init11interactive25get_rust_edition_with_apiNtNtB4_11inquire_api11RealInquireEB8_
FN:214,_RINvNtNtNtCsj95mf2ixomG_16cargo_quickstart8commands4init11interactive30get_optional_features_with_apiNtNtB4_11inquire_api11RealInquireEB8_
FN:33,_RNCINvNtNtNtCsj95mf2ixomG_16cargo_quickstart8commands4init11interactive19run_wizard_with_apiNtNtB6_11inquire_api11RealInquireE0Ba_
FN:12,_RNvNtNtNtCsj95mf2ixomG_16cargo_quickstart8commands4init11interactive10run_wizard
FN:103,_RNCINvNtNtNtCsj95mf2ixomG_16cargo_quickstart8commands4init11interactive25get_project_name_with_apiNtNtB6_11inquire_api11RealInquireE0Ba_
FN:104,_RNCNCINvNtNtNtCsj95mf2ixomG_16cargo_quickstart8commands4init11interactive25get_project_name_with_apiNtNtB8_11inquire_api11RealInquireE00Bc_
FN:159,_RNvNtNtNtCsj95mf2ixomG_16cargo_quickstart8commands4init11interactive11get_license
FN:196,_RNvNtNtNtCsj95mf2ixomG_16cargo_quickstart8commands4init11interactive12get_git_init
FN:96,_RNvNtNtNtCsj95mf2ixomG_16cargo_quickstart8commands4init11interactive16get_project_name
FN:121,_RNvNtNtNtCsj95mf2ixomG_16cargo_quickstart8commands4init11interactive16get_project_type
FN:139,_RNvNtNtNtCsj95mf2ixomG_16cargo_quickstart8commands4init11interactive16get_rust_edition
FN:208,_RNvNtNtNtCsj95mf2ixomG_16cargo_quickstart8commands4init11interactive21get_optional_features
FN:234,_RNCINvNtNtNtCsj95mf2ixomG_16cargo_quickstart8commands4init11interactive30get_optional_features_with_apiNtNtB6_11inquire_api11RealInquireE0Ba_
FN:103,_RNCINvNtNtNtCs92oXZPd7plo_16cargo_quickstart8commands4init11interactive25get_project_name_with_apiNtNtB6_11inquire_api11RealInquireE0Ba_
FN:103,_RNCINvNtNtNtCs92oXZPd7plo_16cargo_quickstart8commands4init11interactive25get_project_name_with_apiNtNtB6_11inquire_api11TestInquireE0Ba_
FN:19,_RINvNtNtNtCs92oXZPd7plo_16cargo_quickstart8commands4init11interactive19run_wizard_with_apiNtNtB4_11inquire_api11RealInquireEB8_
FN:19,_RINvNtNtNtCs92oXZPd7plo_16cargo_quickstart8commands4init11interactive19run_wizard_with_apiNtNtB4_11inquire_api11TestInquireEB8_
FN:165,_RINvNtNtNtCs92oXZPd7plo_16cargo_quickstart8commands4init11interactive20get_license_with_apiNtNtB4_11inquire_api11RealInquireEB8_
FN:165,_RINvNtNtNtCs92oXZPd7plo_16cargo_quickstart8commands4init11interactive20get_license_with_apiNtNtB4_11inquire_api11TestInquireEB8_
FN:202,_RINvNtNtNtCs92oXZPd7plo_16cargo_quickstart8commands4init11interactive21get_git_init_with_apiNtNtB4_11inquire_api11RealInquireEB8_
FN:202,_RINvNtNtNtCs92oXZPd7plo_16cargo_quickstart8commands4init11interactive21get_git_init_with_apiNtNtB4_11inquire_api11TestInquireEB8_
FN:102,_RINvNtNtNtCs92oXZPd7plo_16cargo_quickstart8commands4init11interactive25get_project_name_with_apiNtNtB4_11inquire_api11RealInquireEB8_
FN:102,_RINvNtNtNtCs92oXZPd7plo_16cargo_quickstart8commands4init11interactive25get_project_name_with_apiNtNtB4_11inquire_api11TestInquireEB8_
FN:127,_RINvNtNtNtCs92oXZPd7plo_16cargo_quickstart8commands4init11interactive25get_project_type_with_apiNtNtB4_11inquire_api11RealInquireEB8_
FN:127,_RINvNtNtNtCs92oXZPd7plo_16cargo_quickstart8commands4init11interactive25get_project_type_with_apiNtNtB4_11inquire_api11TestInquireEB8_
FN:145,_RINvNtNtNtCs92oXZPd7plo_16cargo_quickstart8commands4init11interactive25get_rust_edition_with_apiNtNtB4_11inquire_api11RealInquireEB8_
FN:145,_RINvNtNtNtCs92oXZPd7plo_16cargo_quickstart8commands4init11interactive25get_rust_edition_with_apiNtNtB4_11inquire_api11TestInquireEB8_
FN:214,_RINvNtNtNtCs92oXZPd7plo_16cargo_quickstart8commands4init11interactive30get_optional_features_with_apiNtNtB4_11inquire_api11RealInquireEB8_
FN:214,_RINvNtNtNtCs92oXZPd7plo_16cargo_quickstart8commands4init11interactive30get_optional_features_with_apiNtNtB4_11inquire_api11TestInquireEB8_
FN:33,_RNCINvNtNtNtCs92oXZPd7plo_16cargo_quickstart8commands4init11interactive19run_wizard_with_apiNtNtB6_11inquire_api11RealInquireE0Ba_
FN:33,_RNCINvNtNtNtCs92oXZPd7plo_16cargo_quickstart8commands4init11interactive19run_wizard_with_apiNtNtB6_11inquire_api11TestInquireE0Ba_
FN:234,_RNCINvNtNtNtCs92oXZPd7plo_16cargo_quickstart8commands4init11interactive30get_optional_features_with_apiNtNtB6_11inquire_api11RealInquireE0Ba_
FN:234,_RNCINvNtNtNtCs92oXZPd7plo_16cargo_quickstart8commands4init11interactive30get_optional_features_with_apiNtNtB6_11inquire_api11TestInquireE0Ba_
FN:12,_RNvNtNtNtCs92oXZPd7plo_16cargo_quickstart8commands4init11interactive10run_wizard
FN:104,_RNCNCINvNtNtNtCs92oXZPd7plo_16cargo_quickstart8commands4init11interactive25get_project_name_with_apiNtNtB8_11inquire_api11RealInquireE00Bc_
FN:104,_RNCNCINvNtNtNtCs92oXZPd7plo_16cargo_quickstart8commands4init11interactive25get_project_name_with_apiNtNtB8_11inquire_api11TestInquireE00Bc_
FN:306,_RNvNtNtNtNtCs92oXZPd7plo_16cargo_quickstart8commands4init11interactive5testss_21test_get_rust_edition
FN:336,_RNvNtNtNtNtCs92oXZPd7plo_16cargo_quickstart8commands4init11interactive5testss_23test_get_license_custom
FN:321,_RNvNtNtNtNtCs92oXZPd7plo_16cargo_quickstart8commands4init11interactive5testss_25test_get_license_standard
FN:352,_RNvNtNtNtNtCs92oXZPd7plo_16cargo_quickstart8commands4init11interactive5testss_26test_get_optional_features
FN:246,_RNvNtNtNtNtCs92oXZPd7plo_16cargo_quickstart8commands4init11interactive5testss_27test_get_project_name_valid
FN:276,_RNvNtNtNtNtCs92oXZPd7plo_16cargo_quickstart8commands4init11interactive5testss_28test_get_project_type_binary
FN:261,_RNvNtNtNtNtCs92oXZPd7plo_16cargo_quickstart8commands4init11interactive5testss_29test_get_project_name_invalid
FN:291,_RNvNtNtNtNtCs92oXZPd7plo_16cargo_quickstart8commands4init11interactive5testss_29test_get_project_type_library
FN:412,_RNvNtNtNtNtCs92oXZPd7plo_16cargo_quickstart8commands4init11interactive5testss_29test_run_wizard_cancel_at_end
FN:370,_RNvNtNtNtNtCs92oXZPd7plo_16cargo_quickstart8commands4init11interactive5testss_29test_run_wizard_complete_flow
FN:473,_RNvNtNtNtNtCs92oXZPd7plo_16cargo_quickstart8commands4init11interactive5testss_38test_run_wizard_nonexistent_dir_cancel
FN:443,_RNvNtNtNtNtCs92oXZPd7plo_16cargo_quickstart8commands4init11interactive5testss_38test_run_wizard_nonexistent_dir_create
FN:159,_RNvNtNtNtCs92oXZPd7plo_16cargo_quickstart8commands4init11interactive11get_license
FN:196,_RNvNtNtNtCs92oXZPd7plo_16cargo_quickstart8commands4init11interactive12get_git_init
FN:96,_RNvNtNtNtCs92oXZPd7plo_16cargo_quickstart8commands4init11interactive16get_project_name
FN:121,_RNvNtNtNtCs92oXZPd7plo_16cargo_quickstart8commands4init11interactive16get_project_type
FN:139,_RNvNtNtNtCs92oXZPd7plo_16cargo_quickstart8commands4init11interactive16get_rust_edition
FN:208,_RNvNtNtNtCs92oXZPd7plo_16cargo_quickstart8commands4init11interactive21get_optional_features
FNDA:0,_RINvNtNtNtCsj95mf2ixomG_16cargo_quickstart8commands4init11interactive19run_wizard_with_apiNtNtB4_11inquire_api11RealInquireEB8_
FNDA:0,_RINvNtNtNtCsj95mf2ixomG_16cargo_quickstart8commands4init11interactive20get_license_with_apiNtNtB4_11inquire_api11RealInquireEB8_
FNDA:0,_RINvNtNtNtCsj95mf2ixomG_16cargo_quickstart8commands4init11interactive21get_git_init_with_apiNtNtB4_11inquire_api11RealInquireEB8_
FNDA:0,_RINvNtNtNtCsj95mf2ixomG_16cargo_quickstart8commands4init11interactive25get_project_name_with_apiNtNtB4_11inquire_api11RealInquireEB8_
FNDA:0,_RINvNtNtNtCsj95mf2ixomG_16cargo_quickstart8commands4init11interactive25get_project_type_with_apiNtNtB4_11inquire_api11RealInquireEB8_
FNDA:0,_RINvNtNtNtCsj95mf2ixomG_16cargo_quickstart8commands4init11interactive25get_rust_edition_with_apiNtNtB4_11inquire_api11RealInquireEB8_
FNDA:0,_RINvNtNtNtCsj95mf2ixomG_16cargo_quickstart8commands4init11interactive30get_optional_features_with_apiNtNtB4_11inquire_api11RealInquireEB8_
FNDA:0,_RNCINvNtNtNtCsj95mf2ixomG_16cargo_quickstart8commands4init11interactive19run_wizard_with_apiNtNtB6_11inquire_api11RealInquireE0Ba_
FNDA:0,_RNvNtNtNtCsj95mf2ixomG_16cargo_quickstart8commands4init11interactive10run_wizard
FNDA:0,_RNCINvNtNtNtCsj95mf2ixomG_16cargo_quickstart8commands4init11interactive25get_project_name_with_apiNtNtB6_11inquire_api11RealInquireE0Ba_
FNDA:0,_RNCNCINvNtNtNtCsj95mf2ixomG_16cargo_quickstart8commands4init11interactive25get_project_name_with_apiNtNtB8_11inquire_api11RealInquireE00Bc_
FNDA:0,_RNvNtNtNtCsj95mf2ixomG_16cargo_quickstart8commands4init11interactive11get_license
FNDA:0,_RNvNtNtNtCsj95mf2ixomG_16cargo_quickstart8commands4init11interactive12get_git_init
FNDA:0,_RNvNtNtNtCsj95mf2ixomG_16cargo_quickstart8commands4init11interactive16get_project_name
FNDA:0,_RNvNtNtNtCsj95mf2ixomG_16cargo_quickstart8commands4init11interactive16get_project_type
FNDA:0,_RNvNtNtNtCsj95mf2ixomG_16cargo_quickstart8commands4init11interactive16get_rust_edition
FNDA:0,_RNvNtNtNtCsj95mf2ixomG_16cargo_quickstart8commands4init11interactive21get_optional_features
FNDA:0,_RNCINvNtNtNtCsj95mf2ixomG_16cargo_quickstart8commands4init11interactive30get_optional_features_with_apiNtNtB6_11inquire_api11RealInquireE0Ba_
FNDA:0,_RNCINvNtNtNtCs92oXZPd7plo_16cargo_quickstart8commands4init11interactive25get_project_name_with_apiNtNtB6_11inquire_api11RealInquireE0Ba_
FNDA:5,_RNCINvNtNtNtCs92oXZPd7plo_16cargo_quickstart8commands4init11interactive25get_project_name_with_apiNtNtB6_11inquire_api11TestInquireE0Ba_
FNDA:0,_RINvNtNtNtCs92oXZPd7plo_16cargo_quickstart8commands4init11interactive19run_wizard_with_apiNtNtB4_11inquire_api11RealInquireEB8_
FNDA:4,_RINvNtNtNtCs92oXZPd7plo_16cargo_quickstart8commands4init11interactive19run_wizard_with_apiNtNtB4_11inquire_api11TestInquireEB8_
FNDA:0,_RINvNtNtNtCs92oXZPd7plo_16cargo_quickstart8commands4init11interactive20get_license_with_apiNtNtB4_11inquire_api11RealInquireEB8_
FNDA:5,_RINvNtNtNtCs92oXZPd7plo_16cargo_quickstart8commands4init11interactive20get_license_with_apiNtNtB4_11inquire_api11TestInquireEB8_
FNDA:0,_RINvNtNtNtCs92oXZPd7plo_16cargo_quickstart8commands4init11interactive21get_git_init_with_apiNtNtB4_11inquire_api11RealInquireEB8_
FNDA:3,_RINvNtNtNtCs92oXZPd7plo_16cargo_quickstart8commands4init11interactive21get_git_init_with_apiNtNtB4_11inquire_api11TestInquireEB8_
FNDA:0,_RINvNtNtNtCs92oXZPd7plo_16cargo_quickstart8commands4init11interactive25get_project_name_with_apiNtNtB4_11inquire_api11RealInquireEB8_
FNDA:5,_RINvNtNtNtCs92oXZPd7plo_16cargo_quickstart8commands4init11interactive25get_project_name_with_apiNtNtB4_11inquire_api11TestInquireEB8_
FNDA:0,_RINvNtNtNtCs92oXZPd7plo_16cargo_quickstart8commands4init11interactive25get_project_type_with_apiNtNtB4_11inquire_api11RealInquireEB8_
FNDA:5,_RINvNtNtNtCs92oXZPd7plo_16cargo_quickstart8commands4init11interactive25get_project_type_with_apiNtNtB4_11inquire_api11TestInquireEB8_
FNDA:0,_RINvNtNtNtCs92oXZPd7plo_16cargo_quickstart8commands4init11interactive25get_rust_edition_with_apiNtNtB4_11inquire_api11RealInquireEB8_
FNDA:4,_RINvNtNtNtCs92oXZPd7plo_16cargo_quickstart8commands4init11interactive25get_rust_edition_with_apiNtNtB4_11inquire_api11TestInquireEB8_
FNDA:0,_RINvNtNtNtCs92oXZPd7plo_16cargo_quickstart8commands4init11interactive30get_optional_features_with_apiNtNtB4_11inquire_api11RealInquireEB8_
FNDA:4,_RINvNtNtNtCs92oXZPd7plo_16cargo_quickstart8commands4init11interactive30get_optional_features_with_apiNtNtB4_11inquire_api11TestInquireEB8_
FNDA:0,_RNCINvNtNtNtCs92oXZPd7plo_16cargo_quickstart8commands4init11interactive19run_wizard_with_apiNtNtB6_11inquire_api11RealInquireE0Ba_
FNDA:0,_RNCINvNtNtNtCs92oXZPd7plo_16cargo_quickstart8commands4init11interactive19run_wizard_with_apiNtNtB6_11inquire_api11TestInquireE0Ba_
FNDA:0,_RNCINvNtNtNtCs92oXZPd7plo_16cargo_quickstart8commands4init11interactive30get_optional_features_with_apiNtNtB6_11inquire_api11RealInquireE0Ba_
FNDA:8,_RNCINvNtNtNtCs92oXZPd7plo_16cargo_quickstart8commands4init11interactive30get_optional_features_with_apiNtNtB6_11inquire_api11TestInquireE0Ba_
FNDA:0,_RNvNtNtNtCs92oXZPd7plo_16cargo_quickstart8commands4init11interactive10run_wizard
FNDA:0,_RNCNCINvNtNtNtCs92oXZPd7plo_16cargo_quickstart8commands4init11interactive25get_project_name_with_apiNtNtB8_11inquire_api11RealInquireE00Bc_
FNDA:4,_RNCNCINvNtNtNtCs92oXZPd7plo_16cargo_quickstart8commands4init11interactive25get_project_name_with_apiNtNtB8_11inquire_api11TestInquireE00Bc_
FNDA:1,_RNvNtNtNtNtCs92oXZPd7plo_16cargo_quickstart8commands4init11interactive5testss_21test_get_rust_edition
FNDA:1,_RNvNtNtNtNtCs92oXZPd7plo_16cargo_quickstart8commands4init11interactive5testss_23test_get_license_custom
FNDA:1,_RNvNtNtNtNtCs92oXZPd7plo_16cargo_quickstart8commands4init11interactive5testss_25test_get_license_standard
FNDA:1,_RNvNtNtNtNtCs92oXZPd7plo_16cargo_quickstart8commands4init11interactive5testss_26test_get_optional_features
FNDA:1,_RNvNtNtNtNtCs92oXZPd7plo_16cargo_quickstart8commands4init11interactive5testss_27test_get_project_name_valid
FNDA:1,_RNvNtNtNtNtCs92oXZPd7plo_16cargo_quickstart8commands4init11interactive5testss_28test_get_project_type_binary
FNDA:1,_RNvNtNtNtNtCs92oXZPd7plo_16cargo_quickstart8commands4init11interactive5testss_29test_get_project_name_invalid
FNDA:1,_RNvNtNtNtNtCs92oXZPd7plo_16cargo_quickstart8commands4init11interactive5testss_29test_get_project_type_library
FNDA:1,_RNvNtNtNtNtCs92oXZPd7plo_16cargo_quickstart8commands4init11interactive5testss_29test_run_wizard_cancel_at_end
FNDA:1,_RNvNtNtNtNtCs92oXZPd7plo_16cargo_quickstart8commands4init11interactive5testss_29test_run_wizard_complete_flow
FNDA:1,_RNvNtNtNtNtCs92oXZPd7plo_16cargo_quickstart8commands4init11interactive5testss_38test_run_wizard_nonexistent_dir_cancel
FNDA:1,_RNvNtNtNtNtCs92oXZPd7plo_16cargo_quickstart8commands4init11interactive5testss_38test_run_wizard_nonexistent_dir_create
FNDA:0,_RNvNtNtNtCs92oXZPd7plo_16cargo_quickstart8commands4init11interactive11get_license
FNDA:0,_RNvNtNtNtCs92oXZPd7plo_16cargo_quickstart8commands4init11interactive12get_git_init
FNDA:0,_RNvNtNtNtCs92oXZPd7plo_16cargo_quickstart8commands4init11interactive16get_project_name
FNDA:0,_RNvNtNtNtCs92oXZPd7plo_16cargo_quickstart8commands4init11interactive16get_project_type
FNDA:0,_RNvNtNtNtCs92oXZPd7plo_16cargo_quickstart8commands4init11interactive16get_rust_edition
FNDA:0,_RNvNtNtNtCs92oXZPd7plo_16cargo_quickstart8commands4init11interactive21get_optional_features
FNF:30
FNH:22
DA:12,0
DA:13,0
DA:14,0
DA:15,0
DA:19,4
DA:21,4
DA:22,2
DA:23,2
DA:24,2
DA:26,0
DA:28,2
DA:29,1
DA:30,1
DA:32,1
DA:33,1
DA:34,2
DA:37,3
DA:40,3
DA:43,3
DA:46,3
DA:49,3
DA:52,3
DA:55,3
DA:56,3
DA:57,3
DA:58,3
DA:59,3
DA:60,3
DA:61,3
DA:62,3
DA:63,3
DA:66,3
DA:67,3
DA:68,3
DA:69,3
DA:70,3
DA:71,3
DA:72,3
DA:73,3
DA:76,3
DA:77,3
DA:78,8
DA:79,5
DA:80,5
DA:81,0
DA:83,3
DA:85,3
DA:87,3
DA:88,1
DA:89,2
DA:91,2
DA:92,4
DA:96,0
DA:97,0
DA:98,0
DA:99,0
DA:102,5
DA:103,5
DA:104,5
DA:105,4
DA:107,1
DA:109,5
DA:111,5
DA:112,5
DA:113,5
DA:114,5
DA:115,5
DA:117,5
DA:121,0
DA:122,0
DA:123,0
DA:124,0
DA:127,5
DA:128,5
DA:130,5
DA:131,4
DA:132,1
DA:133,0
DA:135,5
DA:139,0
DA:140,0
DA:141,0
DA:142,0
DA:145,4
DA:146,4
DA:148,4
DA:149,4
DA:150,4
DA:151,4
DA:152,0
DA:154,4
DA:155,4
DA:159,0
DA:160,0
DA:161,0
DA:162,0
DA:165,5
DA:166,5
DA:167,5
DA:168,5
DA:169,5
DA:170,5
DA:171,5
DA:172,5
DA:173,5
DA:174,5
DA:176,5
DA:177,5
DA:178,5
DA:179,5
DA:180,0
DA:182,5
DA:184,5
DA:185,1
DA:186,1
DA:187,1
DA:190,4
DA:192,5
DA:196,0
DA:197,0
DA:198,0
DA:199,0
DA:202,3
DA:203,3
DA:204,3
DA:208,0
DA:209,0
DA:210,0
DA:211,0
DA:214,4
DA:215,4
DA:216,4
DA:217,4
DA:218,4
DA:219,4
DA:220,4
DA:221,4
DA:222,4
DA:223,4
DA:225,4
DA:226,4
DA:227,4
DA:228,4
DA:229,4
DA:230,0
DA:232,4
DA:233,4
DA:234,8
DA:235,4
DA:236,4
DA:246,1
DA:247,1
DA:248,1
DA:250,1
DA:252,1
DA:253,1
DA:254,1
DA:256,0
DA:258,1
DA:261,1
DA:262,1
DA:263,1
DA:265,1
DA:267,1
DA:268,1
DA:269,1
DA:271,0
DA:273,1
DA:276,1
DA:277,1
DA:278,1
DA:280,1
DA:282,1
DA:283,1
DA:284,1
DA:286,0
DA:288,1
DA:291,1
DA:292,1
DA:293,1
DA:295,1
DA:297,1
DA:298,1
DA:299,1
DA:301,0
DA:303,1
DA:306,1
DA:307,1
DA:308,1
DA:310,1
DA:312,1
DA:313,1
DA:314,1
DA:316,0
DA:318,1
DA:321,1
DA:322,1
DA:323,1
DA:325,1
DA:327,1
DA:328,1
DA:329,1
DA:331,0
DA:333,1
DA:336,1
DA:337,1
DA:338,1
DA:339,1
DA:341,1
DA:343,1
DA:344,1
DA:345,1
DA:347,0
DA:349,1
DA:352,1
DA:353,1
DA:354,1
DA:356,1
DA:358,1
DA:359,1
DA:360,1
DA:361,1
DA:362,1
DA:363,1
DA:365,0
DA:367,1
DA:370,1
DA:372,1
DA:373,0
DA:374,0
DA:375,1
DA:377,1
DA:381,1
DA:383,1
DA:385,1
DA:387,1
DA:389,1
DA:391,1
DA:393,1
DA:395,1
DA:396,1
DA:398,1
DA:399,1
DA:400,1
DA:401,1
DA:402,1
DA:403,1
DA:404,1
DA:406,0
DA:408,1
DA:409,1
DA:412,1
DA:414,1
DA:415,0
DA:416,0
DA:417,1
DA:419,1
DA:422,1
DA:423,1
DA:424,1
DA:425,1
DA:426,1
DA:427,1
DA:428,1
DA:430,1
DA:431,1
DA:433,1
DA:434,1
DA:435,1
DA:437,0
DA:439,1
DA:440,1
DA:443,1
DA:445,1
DA:446,0
DA:447,0
DA:448,1
DA:450,1
DA:453,1
DA:455,1
DA:456,1
DA:457,1
DA:458,1
DA:459,1
DA:460,1
DA:461,1
DA:463,1
DA:464,1
DA:465,1
DA:467,1
DA:468,1
DA:469,1
DA:470,1
DA:473,1
DA:475,1
DA:476,0
DA:477,0
DA:478,1
DA:480,1
DA:483,1
DA:485,1
DA:486,1
DA:487,1
DA:489,1
DA:490,1
DA:491,1
DA:493,0
DA:495,1
DA:496,1
DA:497,1
BRF:0
BRH:0
LF:314
LH:260
end_of_record
SF:/Users/smeya/git/cargo-quickstart/crates/quickstart-cli/src/commands/init/mod.rs
FN:16,_RNvNtNtCsj95mf2ixomG_16cargo_quickstart8commands4init7execute
FN:23,_RNCNvNtNtCsj95mf2ixomG_16cargo_quickstart8commands4init7execute0B7_
FN:16,_RNvNtNtCs92oXZPd7plo_16cargo_quickstart8commands4init7execute
FN:23,_RNCNvNtNtCs92oXZPd7plo_16cargo_quickstart8commands4init7execute0B7_
FNDA:0,_RNvNtNtCsj95mf2ixomG_16cargo_quickstart8commands4init7execute
FNDA:0,_RNCNvNtNtCsj95mf2ixomG_16cargo_quickstart8commands4init7execute0B7_
FNDA:1,_RNvNtNtCs92oXZPd7plo_16cargo_quickstart8commands4init7execute
FNDA:0,_RNCNvNtNtCs92oXZPd7plo_16cargo_quickstart8commands4init7execute0B7_
FNF:2
FNH:1
DA:16,1
DA:17,1
DA:19,0
DA:20,0
DA:21,0
DA:22,0
DA:23,0
DA:27,1
DA:29,1
BRF:0
BRH:0
LF:9
LH:4
end_of_record
SF:/Users/smeya/git/cargo-quickstart/crates/quickstart-cli/src/commands/init/tests.rs
FN:14,_RNvNtNtNtNtCs92oXZPd7plo_16cargo_quickstart8commands4init5tests4test22setup_test_environment
FN:122,_RNvNtNtNtNtCs92oXZPd7plo_16cargo_quickstart8commands4init5tests4test24cleanup_test_environment
FN:274,_RNvNtNtNtNtCs92oXZPd7plo_16cargo_quickstart8commands4init5tests4tests_18test_prompted_name
FN:319,_RNvNtNtNtNtCs92oXZPd7plo_16cargo_quickstart8commands4init5tests4tests_21test_bin_project_type
FN:299,_RNvNtNtNtNtCs92oXZPd7plo_16cargo_quickstart8commands4init5tests4tests_21test_lib_project_type
FN:254,_RNvNtNtNtNtCs92oXZPd7plo_16cargo_quickstart8commands4init5tests4tests_26test_explicit_project_name
FN:364,_RNvNtNtNtNtCs92oXZPd7plo_16cargo_quickstart8commands4init5tests4tests_26test_fallback_project_type
FN:339,_RNvNtNtNtNtCs92oXZPd7plo_16cargo_quickstart8commands4init5tests4tests_26test_prompted_project_type
FN:169,_RNvNtNtNtNtCs92oXZPd7plo_16cargo_quickstart8commands4init5tests4tests_30test_execute_user_cancellation
FN:131,_RNvNtNtNtNtCs92oXZPd7plo_16cargo_quickstart8commands4init5tests4tests_30test_execute_with_confirmation
FN:216,_RNvNtNtNtNtCs92oXZPd7plo_16cargo_quickstart8commands4init5tests4tests_34test_execute_nonexistent_directory
FNDA:3,_RNvNtNtNtNtCs92oXZPd7plo_16cargo_quickstart8commands4init5tests4test22setup_test_environment
FNDA:3,_RNvNtNtNtNtCs92oXZPd7plo_16cargo_quickstart8commands4init5tests4test24cleanup_test_environment
FNDA:1,_RNvNtNtNtNtCs92oXZPd7plo_16cargo_quickstart8commands4init5tests4tests_18test_prompted_name
FNDA:1,_RNvNtNtNtNtCs92oXZPd7plo_16cargo_quickstart8commands4init5tests4tests_21test_bin_project_type
FNDA:1,_RNvNtNtNtNtCs92oXZPd7plo_16cargo_quickstart8commands4init5tests4tests_21test_lib_project_type
FNDA:1,_RNvNtNtNtNtCs92oXZPd7plo_16cargo_quickstart8commands4init5tests4tests_26test_explicit_project_name
FNDA:1,_RNvNtNtNtNtCs92oXZPd7plo_16cargo_quickstart8commands4init5tests4tests_26test_fallback_project_type
FNDA:1,_RNvNtNtNtNtCs92oXZPd7plo_16cargo_quickstart8commands4init5tests4tests_26test_prompted_project_type
FNDA:1,_RNvNtNtNtNtCs92oXZPd7plo_16cargo_quickstart8commands4init5tests4tests_30test_execute_user_cancellation
FNDA:1,_RNvNtNtNtNtCs92oXZPd7plo_16cargo_quickstart8commands4init5tests4tests_30test_execute_with_confirmation
FNDA:1,_RNvNtNtNtNtCs92oXZPd7plo_16cargo_quickstart8commands4init5tests4tests_34test_execute_nonexistent_directory
FNF:11
FNH:11
DA:14,3
DA:16,3
DA:17,0
DA:18,0
DA:19,0
DA:20,3
DA:23,3
DA:26,3
DA:29,3
DA:30,3
DA:33,3
DA:34,3
DA:37,3
DA:38,3
DA:39,3
DA:40,3
DA:41,3
DA:44,3
DA:45,3
DA:51,0
DA:54,3
DA:55,3
DA:57,0
DA:60,3
DA:61,3
DA:77,0
DA:80,3
DA:81,3
DA:83,0
DA:86,3
DA:87,3
DA:114,0
DA:117,3
DA:119,3
DA:120,3
DA:122,3
DA:123,3
DA:124,0
DA:125,3
DA:126,3
DA:127,3
DA:128,3
DA:131,1
DA:133,1
DA:134,0
DA:135,0
DA:136,1
DA:138,1
DA:140,1
DA:141,1
DA:142,1
DA:143,1
DA:144,1
DA:145,1
DA:146,1
DA:147,1
DA:148,1
DA:149,1
DA:150,1
DA:153,1
DA:154,1
DA:156,1
DA:159,1
DA:162,1
DA:164,1
DA:165,1
DA:166,1
DA:169,1
DA:171,1
DA:172,0
DA:173,0
DA:174,1
DA:176,1
DA:178,1
DA:179,1
DA:180,1
DA:181,1
DA:182,1
DA:183,1
DA:184,1
DA:185,1
DA:186,1
DA:187,1
DA:188,1
DA:191,1
DA:192,1
DA:194,1
DA:197,1
DA:200,1
DA:202,1
DA:204,1
DA:205,1
DA:206,1
DA:210,0
DA:212,1
DA:213,1
DA:216,1
DA:218,1
DA:219,0
DA:220,0
DA:221,1
DA:223,1
DA:224,1
DA:226,1
DA:227,1
DA:228,1
DA:229,1
DA:230,1
DA:231,1
DA:232,1
DA:233,1
DA:234,1
DA:235,1
DA:236,1
DA:238,1
DA:241,1
DA:243,1
DA:244,1
DA:245,0
DA:247,1
DA:249,1
DA:250,1
DA:254,1
DA:255,1
DA:256,1
DA:257,1
DA:258,1
DA:259,1
DA:260,1
DA:261,1
DA:262,1
DA:263,1
DA:264,1
DA:265,1
DA:267,1
DA:268,1
DA:269,1
DA:270,1
DA:271,1
DA:274,1
DA:275,1
DA:276,1
DA:277,1
DA:278,1
DA:279,1
DA:280,1
DA:281,1
DA:282,1
DA:283,1
DA:284,1
DA:285,1
DA:287,1
DA:288,1
DA:290,1
DA:291,1
DA:292,1
DA:294,1
DA:295,1
DA:296,1
DA:299,1
DA:300,1
DA:301,1
DA:302,1
DA:303,1
DA:304,1
DA:305,1
DA:306,1
DA:307,1
DA:308,1
DA:309,1
DA:310,1
DA:312,1
DA:313,1
DA:314,1
DA:315,1
DA:316,1
DA:319,1
DA:320,1
DA:321,1
DA:322,1
DA:323,1
DA:324,1
DA:325,1
DA:326,1
DA:327,1
DA:328,1
DA:329,1
DA:330,1
DA:332,1
DA:333,1
DA:334,1
DA:335,1
DA:336,1
DA:339,1
DA:340,1
DA:341,1
DA:342,1
DA:343,1
DA:344,1
DA:345,1
DA:346,1
DA:347,1
DA:348,1
DA:349,1
DA:350,1
DA:352,1
DA:353,1
DA:355,1
DA:356,1
DA:357,1
DA:359,1
DA:360,1
DA:361,1
DA:364,1
DA:365,1
DA:366,1
DA:367,1
DA:368,1
DA:369,1
DA:370,1
DA:371,1
DA:372,1
DA:373,1
DA:374,1
DA:375,1
DA:377,1
DA:378,1
DA:380,1
DA:381,1
DA:382,1
DA:384,1
DA:385,1
DA:386,1
BRF:0
BRH:0
LF:233
LH:216
end_of_record
SF:/Users/smeya/git/cargo-quickstart/crates/quickstart-cli/src/commands/mod.rs
FN:17,_RNvNtCsj95mf2ixomG_16cargo_quickstart8commands11execute_new
FN:22,_RNvNtCsj95mf2ixomG_16cargo_quickstart8commands12execute_init
FN:47,_RNvNtCsj95mf2ixomG_16cargo_quickstart8commands14execute_doctor
FN:41,_RNvNtCsj95mf2ixomG_16cargo_quickstart8commands19execute_completions
FN:27,_RNvNtCsj95mf2ixomG_16cargo_quickstart8commands22execute_list_templates
FN:72,_RNvXs2_NtNtNtNtNtCs92oXZPd7plo_16cargo_quickstart8commands5tests20mock_template_loader25___mock_MockTemplateLoader5___newNtB5_7MatcherNtNtCs6FgkbHSHiEg_4core3fmt7Display3fmt
FN:72,_RNvXs5_NtNtNtNtNtCs92oXZPd7plo_16cargo_quickstart8commands5tests20mock_template_loader25___mock_MockTemplateLoader5___newNtB5_6CommonNtNtNtCs6FgkbHSHiEg_4core3ops4drop4Drop4drop
FN:17,_RNvNtCs92oXZPd7plo_16cargo_quickstart8commands11execute_new
FN:22,_RNvNtCs92oXZPd7plo_16cargo_quickstart8commands12execute_init
FN:47,_RNvNtCs92oXZPd7plo_16cargo_quickstart8commands14execute_doctor
FN:41,_RNvNtCs92oXZPd7plo_16cargo_quickstart8commands19execute_completions
FN:27,_RNvNtCs92oXZPd7plo_16cargo_quickstart8commands22execute_list_templates
FN:149,_RNvNtNtCs92oXZPd7plo_16cargo_quickstart8commands5testss_28test_execute_new_passes_args
FN:174,_RNvNtNtCs92oXZPd7plo_16cargo_quickstart8commands5testss_29test_execute_init_passes_args
FN:99,_RNvNtNtCs92oXZPd7plo_16cargo_quickstart8commands5testss_30test_execute_doctor_returns_ok
FN:117,_RNvNtNtCs92oXZPd7plo_16cargo_quickstart8commands5testss_35test_execute_completions_returns_ok
FN:80,_RNvNtNtCs92oXZPd7plo_16cargo_quickstart8commands5testss_38test_execute_list_templates_with_mocks
FN:72,_RINvMs4_NtNtNtNtNtCs92oXZPd7plo_16cargo_quickstart8commands5tests20mock_template_loader25___mock_MockTemplateLoader16___list_templatesNtB6_6Common5timespEBg_
FN:72,_RINvMs4_NtNtNtNtNtCs92oXZPd7plo_16cargo_quickstart8commands5tests20mock_template_loader25___mock_MockTemplateLoader16___list_templatesNtB6_6Common5withfpEBg_
FN:72,_RINvMs4_NtNtNtNtNtCs92oXZPd7plo_16cargo_quickstart8commands5tests20mock_template_loader25___mock_MockTemplateLoader16___list_templatesNtB6_6Common8withf_stpEBg_
FN:72,_RINvMs4_NtNtNtNtNtCs92oXZPd7plo_16cargo_quickstart8commands5tests20mock_template_loader25___mock_MockTemplateLoader5___newNtB6_6Common4withpEBg_
FN:72,_RINvMs4_NtNtNtNtNtCs92oXZPd7plo_16cargo_quickstart8commands5tests20mock_template_loader25___mock_MockTemplateLoader5___newNtB6_6Common5timespEBg_
FN:72,_RINvMs4_NtNtNtNtNtCs92oXZPd7plo_16cargo_quickstart8commands5tests20mock_template_loader25___mock_MockTemplateLoader5___newNtB6_6Common5withfpEBg_
FN:72,_RINvMs4_NtNtNtNtNtCs92oXZPd7plo_16cargo_quickstart8commands5tests20mock_template_loader25___mock_MockTemplateLoader5___newNtB6_6Common8withf_stpEBg_
FN:72,_RINvMs6_NtNtNtNtNtCs92oXZPd7plo_16cargo_quickstart8commands5tests20mock_template_loader25___mock_MockTemplateLoader16___list_templatesNtB6_11Expectation11return_oncepEBg_
FN:72,_RINvMs6_NtNtNtNtNtCs92oXZPd7plo_16cargo_quickstart8commands5tests20mock_template_loader25___mock_MockTemplateLoader16___list_templatesNtB6_11Expectation12return_constpEBg_
FN:72,_RINvMs6_NtNtNtNtNtCs92oXZPd7plo_16cargo_quickstart8commands5tests20mock_template_loader25___mock_MockTemplateLoader16___list_templatesNtB6_11Expectation12returning_stpEBg_
FN:72,_RINvMs6_NtNtNtNtNtCs92oXZPd7plo_16cargo_quickstart8commands5tests20mock_template_loader25___mock_MockTemplateLoader16___list_templatesNtB6_11Expectation14return_once_stpEBg_
FN:72,_RINvMs6_NtNtNtNtNtCs92oXZPd7plo_16cargo_quickstart8commands5tests20mock_template_loader25___mock_MockTemplateLoader16___list_templatesNtB6_11Expectation15return_const_stpEBg_
FN:72,_RINvMs6_NtNtNtNtNtCs92oXZPd7plo_16cargo_quickstart8commands5tests20mock_template_loader25___mock_MockTemplateLoader16___list_templatesNtB6_11Expectation5timespEBg_
FN:72,_RINvMs6_NtNtNtNtNtCs92oXZPd7plo_16cargo_quickstart8commands5tests20mock_template_loader25___mock_MockTemplateLoader16___list_templatesNtB6_11Expectation5withfpEBg_
FN:72,_RINvMs6_NtNtNtNtNtCs92oXZPd7plo_16cargo_quickstart8commands5tests20mock_template_loader25___mock_MockTemplateLoader16___list_templatesNtB6_11Expectation8withf_stpEBg_
FN:72,_RINvMs6_NtNtNtNtNtCs92oXZPd7plo_16cargo_quickstart8commands5tests20mock_template_loader25___mock_MockTemplateLoader16___list_templatesNtB6_11Expectation9returningpEBg_
FN:72,_RINvMs6_NtNtNtNtNtCs92oXZPd7plo_16cargo_quickstart8commands5tests20mock_template_loader25___mock_MockTemplateLoader5___newNtB6_11Expectation11return_oncepEBg_
FN:72,_RINvMs6_NtNtNtNtNtCs92oXZPd7plo_16cargo_quickstart8commands5tests20mock_template_loader25___mock_MockTemplateLoader5___newNtB6_11Expectation12return_constpEBg_
FN:72,_RINvMs6_NtNtNtNtNtCs92oXZPd7plo_16cargo_quickstart8commands5tests20mock_template_loader25___mock_MockTemplateLoader5___newNtB6_11Expectation12returning_stpEBg_
FN:72,_RINvMs6_NtNtNtNtNtCs92oXZPd7plo_16cargo_quickstart8commands5tests20mock_template_loader25___mock_MockTemplateLoader5___newNtB6_11Expectation14return_once_stpEBg_
FN:72,_RINvMs6_NtNtNtNtNtCs92oXZPd7plo_16cargo_quickstart8commands5tests20mock_template_loader25___mock_MockTemplateLoader5___newNtB6_11Expectation15return_const_stpEBg_
FN:72,_RINvMs6_NtNtNtNtNtCs92oXZPd7plo_16cargo_quickstart8commands5tests20mock_template_loader25___mock_MockTemplateLoader5___newNtB6_11Expectation4withpEBg_
FN:72,_RINvMs6_NtNtNtNtNtCs92oXZPd7plo_16cargo_quickstart8commands5tests20mock_template_loader25___mock_MockTemplateLoader5___newNtB6_11Expectation5timespEBg_
FN:72,_RINvMs6_NtNtNtNtNtCs92oXZPd7plo_16cargo_quickstart8commands5tests20mock_template_loader25___mock_MockTemplateLoader5___newNtB6_11Expectation5withfpEBg_
FN:72,_RINvMs6_NtNtNtNtNtCs92oXZPd7plo_16cargo_quickstart8commands5tests20mock_template_loader25___mock_MockTemplateLoader5___newNtB6_11Expectation8withf_stpEBg_
FN:72,_RINvMs6_NtNtNtNtNtCs92oXZPd7plo_16cargo_quickstart8commands5tests20mock_template_loader25___mock_MockTemplateLoader5___newNtB6_11Expectation9returningpEBg_
FN:72,_RINvMsb_NtNtNtNtNtCs92oXZPd7plo_16cargo_quickstart8commands5tests20mock_template_loader25___mock_MockTemplateLoader5___newNtB6_16ExpectationGuard11return_oncepEBg_
FN:72,_RINvMsb_NtNtNtNtNtCs92oXZPd7plo_16cargo_quickstart8commands5tests20mock_template_loader25___mock_MockTemplateLoader5___newNtB6_16ExpectationGuard12return_constpEBg_
FN:72,_RINvMsb_NtNtNtNtNtCs92oXZPd7plo_16cargo_quickstart8commands5tests20mock_template_loader25___mock_MockTemplateLoader5___newNtB6_16ExpectationGuard12returning_stpEBg_
FN:72,_RINvMsb_NtNtNtNtNtCs92oXZPd7plo_16cargo_quickstart8commands5tests20mock_template_loader25___mock_MockTemplateLoader5___newNtB6_16ExpectationGuard14return_once_stpEBg_
FN:72,_RINvMsb_NtNtNtNtNtCs92oXZPd7plo_16cargo_quickstart8commands5tests20mock_template_loader25___mock_MockTemplateLoader5___newNtB6_16ExpectationGuard15return_const_stpEBg_
FN:72,_RINvMsb_NtNtNtNtNtCs92oXZPd7plo_16cargo_quickstart8commands5tests20mock_template_loader25___mock_MockTemplateLoader5___newNtB6_16ExpectationGuard4withpEBg_
FN:72,_RINvMsb_NtNtNtNtNtCs92oXZPd7plo_16cargo_quickstart8commands5tests20mock_template_loader25___mock_MockTemplateLoader5___newNtB6_16ExpectationGuard5timespEBg_
FN:72,_RINvMsb_NtNtNtNtNtCs92oXZPd7plo_16cargo_quickstart8commands5tests20mock_template_loader25___mock_MockTemplateLoader5___newNtB6_16ExpectationGuard5withfpEBg_
FN:72,_RINvMsb_NtNtNtNtNtCs92oXZPd7plo_16cargo_quickstart8commands5tests20mock_template_loader25___mock_MockTemplateLoader5___newNtB6_16ExpectationGuard8withf_stpEBg_
FN:72,_RINvMsb_NtNtNtNtNtCs92oXZPd7plo_16cargo_quickstart8commands5tests20mock_template_loader25___mock_MockTemplateLoader5___newNtB6_16ExpectationGuard9returningpEBg_
FN:72,_RNCINvMs6_NtNtNtNtNtCs92oXZPd7plo_16cargo_quickstart8commands5tests20mock_template_loader25___mock_MockTemplateLoader16___list_templatesNtB8_11Expectation12return_constpE0Bi_
FN:72,_RNCINvMs6_NtNtNtNtNtCs92oXZPd7plo_16cargo_quickstart8commands5tests20mock_template_loader25___mock_MockTemplateLoader16___list_templatesNtB8_11Expectation15return_const_stpE0Bi_
FN:72,_RNCINvMs6_NtNtNtNtNtCs92oXZPd7plo_16cargo_quickstart8commands5tests20mock_template_loader25___mock_MockTemplateLoader5___newNtB8_11Expectation12return_constpE0Bi_
FN:72,_RNCINvMs6_NtNtNtNtNtCs92oXZPd7plo_16cargo_quickstart8commands5tests20mock_template_loader25___mock_MockTemplateLoader5___newNtB8_11Expectation15return_const_stpE0Bi_
FN:72,_RNCNvMs0_NtNtNtNtNtCs92oXZPd7plo_16cargo_quickstart8commands5tests20mock_template_loader25___mock_MockTemplateLoader16___list_templatesNtB7_7Matcher7matches0Bh_
FN:72,_RNCNvMs0_NtNtNtNtNtCs92oXZPd7plo_16cargo_quickstart8commands5tests20mock_template_loader25___mock_MockTemplateLoader5___newNtB7_7Matcher7matches0Bh_
FN:72,_RNCNvMsa_NtNtNtNtNtCs92oXZPd7plo_16cargo_quickstart8commands5tests20mock_template_loader25___mock_MockTemplateLoader16___list_templatesNtB7_12Expectations4call0Bh_
FN:72,_RNCNvMsa_NtNtNtNtNtCs92oXZPd7plo_16cargo_quickstart8commands5tests20mock_template_loader25___mock_MockTemplateLoader16___list_templatesNtB7_12Expectations4calls_0Bh_
FN:72,_RNCNvMsa_NtNtNtNtNtCs92oXZPd7plo_16cargo_quickstart8commands5tests20mock_template_loader25___mock_MockTemplateLoader5___newNtB7_12Expectations4call0Bh_
FN:72,_RNCNvMsa_NtNtNtNtNtCs92oXZPd7plo_16cargo_quickstart8commands5tests20mock_template_loader25___mock_MockTemplateLoader5___newNtB7_12Expectations4calls_0Bh_
FN:72,_RNCNvXse_NtNtNtNtNtCs92oXZPd7plo_16cargo_quickstart8commands5tests20mock_template_loader25___mock_MockTemplateLoader5___newNtB7_7ContextNtNtNtCs6FgkbHSHiEg_4core3ops4drop4Drop4drop0Bh_
FN:72,_RNvMNtNtNtNtNtCs92oXZPd7plo_16cargo_quickstart8commands5tests20mock_template_loader25___mock_MockTemplateLoader16___list_templatesNtB2_5Rfunc8call_mut
FN:72,_RNvMNtNtNtNtNtCs92oXZPd7plo_16cargo_quickstart8commands5tests20mock_template_loader25___mock_MockTemplateLoader5___newNtB2_5Rfunc8call_mut
FN:72,_RNvMs0_NtNtNtNtNtCs92oXZPd7plo_16cargo_quickstart8commands5tests20mock_template_loader25___mock_MockTemplateLoader16___list_templatesNtB5_7Matcher7matches
FN:72,_RNvMs0_NtNtNtNtNtCs92oXZPd7plo_16cargo_quickstart8commands5tests20mock_template_loader25___mock_MockTemplateLoader5___newNtB5_7Matcher7matches
FN:72,_RNvMs4_NtNtNtNtNtCs92oXZPd7plo_16cargo_quickstart8commands5tests20mock_template_loader25___mock_MockTemplateLoader16___list_templatesNtB5_6Common11in_sequence
FN:72,_RNvMs4_NtNtNtNtNtCs92oXZPd7plo_16cargo_quickstart8commands5tests20mock_template_loader25___mock_MockTemplateLoader16___list_templatesNtB5_6Common15verify_sequence
FN:72,_RNvMs4_NtNtNtNtNtCs92oXZPd7plo_16cargo_quickstart8commands5tests20mock_template_loader25___mock_MockTemplateLoader16___list_templatesNtB5_6Common16satisfy_sequence
FN:72,_RNvMs4_NtNtNtNtNtCs92oXZPd7plo_16cargo_quickstart8commands5tests20mock_template_loader25___mock_MockTemplateLoader16___list_templatesNtB5_6Common4call
FN:72,_RNvMs4_NtNtNtNtNtCs92oXZPd7plo_16cargo_quickstart8commands5tests20mock_template_loader25___mock_MockTemplateLoader16___list_templatesNtB5_6Common4with
FN:72,_RNvMs4_NtNtNtNtNtCs92oXZPd7plo_16cargo_quickstart8commands5tests20mock_template_loader25___mock_MockTemplateLoader16___list_templatesNtB5_6Common5never
FN:72,_RNvMs4_NtNtNtNtNtCs92oXZPd7plo_16cargo_quickstart8commands5tests20mock_template_loader25___mock_MockTemplateLoader16___list_templatesNtB5_6Common7is_done
FN:72,_RNvMs4_NtNtNtNtNtCs92oXZPd7plo_16cargo_quickstart8commands5tests20mock_template_loader25___mock_MockTemplateLoader16___list_templatesNtB5_6Common7matches
FN:72,_RNvMs4_NtNtNtNtNtCs92oXZPd7plo_16cargo_quickstart8commands5tests20mock_template_loader25___mock_MockTemplateLoader5___newNtB5_6Common11in_sequence
FN:72,_RNvMs4_NtNtNtNtNtCs92oXZPd7plo_16cargo_quickstart8commands5tests20mock_template_loader25___mock_MockTemplateLoader5___newNtB5_6Common15verify_sequence
FN:72,_RNvMs4_NtNtNtNtNtCs92oXZPd7plo_16cargo_quickstart8commands5tests20mock_template_loader25___mock_MockTemplateLoader5___newNtB5_6Common16satisfy_sequence
FN:72,_RNvMs4_NtNtNtNtNtCs92oXZPd7plo_16cargo_quickstart8commands5tests20mock_template_loader25___mock_MockTemplateLoader5___newNtB5_6Common4call
FN:72,_RNvMs4_NtNtNtNtNtCs92oXZPd7plo_16cargo_quickstart8commands5tests20mock_template_loader25___mock_MockTemplateLoader5___newNtB5_6Common5never
FN:72,_RNvMs4_NtNtNtNtNtCs92oXZPd7plo_16cargo_quickstart8commands5tests20mock_template_loader25___mock_MockTemplateLoader5___newNtB5_6Common7is_done
FN:72,_RNvMs4_NtNtNtNtNtCs92oXZPd7plo_16cargo_quickstart8commands5tests20mock_template_loader25___mock_MockTemplateLoader5___newNtB5_6Common7matches
FN:72,_RNvMs6_NtNtNtNtNtCs92oXZPd7plo_16cargo_quickstart8commands5tests20mock_template_loader25___mock_MockTemplateLoader16___list_templatesNtB5_11Expectation11in_sequence
FN:72,_RNvMs6_NtNtNtNtNtCs92oXZPd7plo_16cargo_quickstart8commands5tests20mock_template_loader25___mock_MockTemplateLoader16___list_templatesNtB5_11Expectation3new
FN:72,_RNvMs6_NtNtNtNtNtCs92oXZPd7plo_16cargo_quickstart8commands5tests20mock_template_loader25___mock_MockTemplateLoader16___list_templatesNtB5_11Expectation4call
FN:72,_RNvMs6_NtNtNtNtNtCs92oXZPd7plo_16cargo_quickstart8commands5tests20mock_template_loader25___mock_MockTemplateLoader16___list_templatesNtB5_11Expectation4once
FN:72,_RNvMs6_NtNtNtNtNtCs92oXZPd7plo_16cargo_quickstart8commands5tests20mock_template_loader25___mock_MockTemplateLoader16___list_templatesNtB5_11Expectation4with
FN:72,_RNvMs6_NtNtNtNtNtCs92oXZPd7plo_16cargo_quickstart8commands5tests20mock_template_loader25___mock_MockTemplateLoader16___list_templatesNtB5_11Expectation5never
FN:72,_RNvMs6_NtNtNtNtNtCs92oXZPd7plo_16cargo_quickstart8commands5tests20mock_template_loader25___mock_MockTemplateLoader16___list_templatesNtB5_11Expectation7is_done
FN:72,_RNvMs6_NtNtNtNtNtCs92oXZPd7plo_16cargo_quickstart8commands5tests20mock_template_loader25___mock_MockTemplateLoader16___list_templatesNtB5_11Expectation7matches
FN:72,_RNvMs6_NtNtNtNtNtCs92oXZPd7plo_16cargo_quickstart8commands5tests20mock_template_loader25___mock_MockTemplateLoader5___newNtB5_11Expectation11in_sequence
FN:72,_RNvMs6_NtNtNtNtNtCs92oXZPd7plo_16cargo_quickstart8commands5tests20mock_template_loader25___mock_MockTemplateLoader5___newNtB5_11Expectation3new
FN:72,_RNvMs6_NtNtNtNtNtCs92oXZPd7plo_16cargo_quickstart8commands5tests20mock_template_loader25___mock_MockTemplateLoader5___newNtB5_11Expectation4call
FN:72,_RNvMs6_NtNtNtNtNtCs92oXZPd7plo_16cargo_quickstart8commands5tests20mock_template_loader25___mock_MockTemplateLoader5___newNtB5_11Expectation4once
FN:72,_RNvMs6_NtNtNtNtNtCs92oXZPd7plo_16cargo_quickstart8commands5tests20mock_template_loader25___mock_MockTemplateLoader5___newNtB5_11Expectation5never
FN:72,_RNvMs6_NtNtNtNtNtCs92oXZPd7plo_16cargo_quickstart8commands5tests20mock_template_loader25___mock_MockTemplateLoader5___newNtB5_11Expectation7is_done
FN:72,_RNvMs6_NtNtNtNtNtCs92oXZPd7plo_16cargo_quickstart8commands5tests20mock_template_loader25___mock_MockTemplateLoader5___newNtB5_11Expectation7matches
FN:72,_RNvMs8_NtNtNtNtNtCs92oXZPd7plo_16cargo_quickstart8commands5tests20mock_template_loader25___mock_MockTemplateLoader16___list_templatesNtB5_12Expectations10checkpoint
FN:72,_RNvMs8_NtNtNtNtNtCs92oXZPd7plo_16cargo_quickstart8commands5tests20mock_template_loader25___mock_MockTemplateLoader16___list_templatesNtB5_12Expectations3new
FN:72,_RNvMs8_NtNtNtNtNtCs92oXZPd7plo_16cargo_quickstart8commands5tests20mock_template_loader25___mock_MockTemplateLoader16___list_templatesNtB5_12Expectations6expect
FN:72,_RNvMs8_NtNtNtNtNtCs92oXZPd7plo_16cargo_quickstart8commands5tests20mock_template_loader25___mock_MockTemplateLoader5___newNtB5_12Expectations10checkpoint
FN:72,_RNvMs8_NtNtNtNtNtCs92oXZPd7plo_16cargo_quickstart8commands5tests20mock_template_loader25___mock_MockTemplateLoader5___newNtB5_12Expectations3new
FN:72,_RNvMs8_NtNtNtNtNtCs92oXZPd7plo_16cargo_quickstart8commands5tests20mock_template_loader25___mock_MockTemplateLoader5___newNtB5_12Expectations6expect
FN:72,_RNvMs_NtNtNtCs92oXZPd7plo_16cargo_quickstart8commands5tests20mock_template_loaderNtB4_18MockTemplateLoader10checkpoint
FN:72,_RNvMs_NtNtNtCs92oXZPd7plo_16cargo_quickstart8commands5tests20mock_template_loaderNtB4_18MockTemplateLoader11new_context
FN:72,_RNvMs_NtNtNtCs92oXZPd7plo_16cargo_quickstart8commands5tests20mock_template_loaderNtB4_18MockTemplateLoader14list_templates
FN:72,_RNvMs_NtNtNtCs92oXZPd7plo_16cargo_quickstart8commands5tests20mock_template_loaderNtB4_18MockTemplateLoader21expect_list_templates
FN:72,_RNvMs_NtNtNtCs92oXZPd7plo_16cargo_quickstart8commands5tests20mock_template_loaderNtB4_18MockTemplateLoader3new
FN:72,_RNvMsa_NtNtNtNtNtCs92oXZPd7plo_16cargo_quickstart8commands5tests20mock_template_loader25___mock_MockTemplateLoader16___list_templatesNtB5_12Expectations4call
FN:72,_RNvMsa_NtNtNtNtNtCs92oXZPd7plo_16cargo_quickstart8commands5tests20mock_template_loader25___mock_MockTemplateLoader5___newNtB5_12Expectations4call
FN:72,_RNvMsb_NtNtNtNtNtCs92oXZPd7plo_16cargo_quickstart8commands5tests20mock_template_loader25___mock_MockTemplateLoader5___newNtB5_16ExpectationGuard11in_sequence
FN:72,_RNvMsb_NtNtNtNtNtCs92oXZPd7plo_16cargo_quickstart8commands5tests20mock_template_loader25___mock_MockTemplateLoader5___newNtB5_16ExpectationGuard3new
FN:72,_RNvMsb_NtNtNtNtNtCs92oXZPd7plo_16cargo_quickstart8commands5tests20mock_template_loader25___mock_MockTemplateLoader5___newNtB5_16ExpectationGuard4once
FN:72,_RNvMsb_NtNtNtNtNtCs92oXZPd7plo_16cargo_quickstart8commands5tests20mock_template_loader25___mock_MockTemplateLoader5___newNtB5_16ExpectationGuard5never
FN:72,_RNvMsc_NtNtNtNtNtCs92oXZPd7plo_16cargo_quickstart8commands5tests20mock_template_loader25___mock_MockTemplateLoader5___newNtB5_7Context10checkpoint
FN:72,_RNvMsc_NtNtNtNtNtCs92oXZPd7plo_16cargo_quickstart8commands5tests20mock_template_loader25___mock_MockTemplateLoader5___newNtB5_7Context13do_checkpoint
FN:72,_RNvMsc_NtNtNtNtNtCs92oXZPd7plo_16cargo_quickstart8commands5tests20mock_template_loader25___mock_MockTemplateLoader5___newNtB5_7Context6expect
FN:72,_RNvNtNtNtNtNtCs92oXZPd7plo_16cargo_quickstart8commands5tests20mock_template_loader25___mock_MockTemplateLoader5___new16get_expectations
FN:72,_RNvXNtNtNtCs92oXZPd7plo_16cargo_quickstart8commands5tests20mock_template_loaderNtB2_18MockTemplateLoaderNtNtCs6FgkbHSHiEg_4core7default7Default7default
FN:72,_RNvXs1_NtNtNtNtNtCs92oXZPd7plo_16cargo_quickstart8commands5tests20mock_template_loader25___mock_MockTemplateLoader16___list_templatesNtB5_7MatcherNtNtCs6FgkbHSHiEg_4core7default7Default7default
FN:72,_RNvXs1_NtNtNtNtNtCs92oXZPd7plo_16cargo_quickstart8commands5tests20mock_template_loader25___mock_MockTemplateLoader5___newNtB5_7MatcherNtNtCs6FgkbHSHiEg_4core7default7Default7default
FN:72,_RNvXs2_NtNtNtNtNtCs92oXZPd7plo_16cargo_quickstart8commands5tests20mock_template_loader25___mock_MockTemplateLoader16___list_templatesNtB5_7MatcherNtNtCs6FgkbHSHiEg_4core3fmt7Display3fmt
FN:72,_RNvXs3_NtNtNtNtNtCs92oXZPd7plo_16cargo_quickstart8commands5tests20mock_template_loader25___mock_MockTemplateLoader16___list_templatesNtB5_6CommonNtNtCs6FgkbHSHiEg_4core7default7Default7default
FN:72,_RNvXs3_NtNtNtNtNtCs92oXZPd7plo_16cargo_quickstart8commands5tests20mock_template_loader25___mock_MockTemplateLoader5___newNtB5_6CommonNtNtCs6FgkbHSHiEg_4core7default7Default7default
FN:72,_RNvXs5_NtNtNtNtNtCs92oXZPd7plo_16cargo_quickstart8commands5tests20mock_template_loader25___mock_MockTemplateLoader16___list_templatesNtB5_6CommonNtNtNtCs6FgkbHSHiEg_4core3ops4drop4Drop4drop
FN:72,_RNvXs7_NtNtNtNtNtCs92oXZPd7plo_16cargo_quickstart8commands5tests20mock_template_loader25___mock_MockTemplateLoader16___list_templatesNtB5_11ExpectationNtNtCs6FgkbHSHiEg_4core7default7Default7default
FN:72,_RNvXs7_NtNtNtNtNtCs92oXZPd7plo_16cargo_quickstart8commands5tests20mock_template_loader25___mock_MockTemplateLoader5___newNtB5_11ExpectationNtNtCs6FgkbHSHiEg_4core7default7Default7default
FN:72,_RNvXs9_NtNtNtNtNtCs92oXZPd7plo_16cargo_quickstart8commands5tests20mock_template_loader25___mock_MockTemplateLoader16___list_templatesNtB5_12ExpectationsNtNtCs6FgkbHSHiEg_4core7default7Default7default
FN:72,_RNvXs9_NtNtNtNtNtCs92oXZPd7plo_16cargo_quickstart8commands5tests20mock_template_loader25___mock_MockTemplateLoader5___newNtB5_12ExpectationsNtNtCs6FgkbHSHiEg_4core7default7Default7default
FN:72,_RNvXs_NtNtNtNtNtCs92oXZPd7plo_16cargo_quickstart8commands5tests20mock_template_loader25___mock_MockTemplateLoader16___list_templatesNtB4_5RfuncNtNtCs6FgkbHSHiEg_4core7default7Default7default
FN:72,_RNvXs_NtNtNtNtNtCs92oXZPd7plo_16cargo_quickstart8commands5tests20mock_template_loader25___mock_MockTemplateLoader5___newNtB4_5RfuncNtNtCs6FgkbHSHiEg_4core7default7Default7default
FN:72,_RNvXsd_NtNtNtNtNtCs92oXZPd7plo_16cargo_quickstart8commands5tests20mock_template_loader25___mock_MockTemplateLoader5___newNtB5_7ContextNtNtCs6FgkbHSHiEg_4core7default7Default7default
FN:72,_RNvXse_NtNtNtNtNtCs92oXZPd7plo_16cargo_quickstart8commands5tests20mock_template_loader25___mock_MockTemplateLoader5___newNtB5_7ContextNtNtNtCs6FgkbHSHiEg_4core3ops4drop4Drop4drop
FNDA:0,_RNvNtCsj95mf2ixomG_16cargo_quickstart8commands11execute_new
FNDA:0,_RNvNtCsj95mf2ixomG_16cargo_quickstart8commands12execute_init
FNDA:5,_RNvNtCsj95mf2ixomG_16cargo_quickstart8commands14execute_doctor
FNDA:0,_RNvNtCsj95mf2ixomG_16cargo_quickstart8commands19execute_completions
FNDA:0,_RNvNtCsj95mf2ixomG_16cargo_quickstart8commands22execute_list_templates
FNDA:0,_RNvXs2_NtNtNtNtNtCs92oXZPd7plo_16cargo_quickstart8commands5tests20mock_template_loader25___mock_MockTemplateLoader5___newNtB5_7MatcherNtNtCs6FgkbHSHiEg_4core3fmt7Display3fmt
FNDA:0,_RNvXs5_NtNtNtNtNtCs92oXZPd7plo_16cargo_quickstart8commands5tests20mock_template_loader25___mock_MockTemplateLoader5___newNtB5_6CommonNtNtNtCs6FgkbHSHiEg_4core3ops4drop4Drop4drop
FNDA:1,_RNvNtCs92oXZPd7plo_16cargo_quickstart8commands11execute_new
FNDA:1,_RNvNtCs92oXZPd7plo_16cargo_quickstart8commands12execute_init
FNDA:1,_RNvNtCs92oXZPd7plo_16cargo_quickstart8commands14execute_doctor
FNDA:1,_RNvNtCs92oXZPd7plo_16cargo_quickstart8commands19execute_completions
FNDA:1,_RNvNtCs92oXZPd7plo_16cargo_quickstart8commands22execute_list_templates
FNDA:1,_RNvNtNtCs92oXZPd7plo_16cargo_quickstart8commands5testss_28test_execute_new_passes_args
FNDA:1,_RNvNtNtCs92oXZPd7plo_16cargo_quickstart8commands5testss_29test_execute_init_passes_args
FNDA:1,_RNvNtNtCs92oXZPd7plo_16cargo_quickstart8commands5testss_30test_execute_doctor_returns_ok
FNDA:1,_RNvNtNtCs92oXZPd7plo_16cargo_quickstart8commands5testss_35test_execute_completions_returns_ok
FNDA:1,_RNvNtNtCs92oXZPd7plo_16cargo_quickstart8commands5testss_38test_execute_list_templates_with_mocks
FNDA:0,_RINvMs4_NtNtNtNtNtCs92oXZPd7plo_16cargo_quickstart8commands5tests20mock_template_loader25___mock_MockTemplateLoader16___list_templatesNtB6_6Common5timespEBg_
FNDA:0,_RINvMs4_NtNtNtNtNtCs92oXZPd7plo_16cargo_quickstart8commands5tests20mock_template_loader25___mock_MockTemplateLoader16___list_templatesNtB6_6Common5withfpEBg_
FNDA:0,_RINvMs4_NtNtNtNtNtCs92oXZPd7plo_16cargo_quickstart8commands5tests20mock_template_loader25___mock_MockTemplateLoader16___list_templatesNtB6_6Common8withf_stpEBg_
FNDA:0,_RINvMs4_NtNtNtNtNtCs92oXZPd7plo_16cargo_quickstart8commands5tests20mock_template_loader25___mock_MockTemplateLoader5___newNtB6_6Common4withpEBg_
FNDA:0,_RINvMs4_NtNtNtNtNtCs92oXZPd7plo_16cargo_quickstart8commands5tests20mock_template_loader25___mock_MockTemplateLoader5___newNtB6_6Common5timespEBg_
FNDA:0,_RINvMs4_NtNtNtNtNtCs92oXZPd7plo_16cargo_quickstart8commands5tests20mock_template_loader25___mock_MockTemplateLoader5___newNtB6_6Common5withfpEBg_
FNDA:0,_RINvMs4_NtNtNtNtNtCs92oXZPd7plo_16cargo_quickstart8commands5tests20mock_template_loader25___mock_MockTemplateLoader5___newNtB6_6Common8withf_stpEBg_
FNDA:0,_RINvMs6_NtNtNtNtNtCs92oXZPd7plo_16cargo_quickstart8commands5tests20mock_template_loader25___mock_MockTemplateLoader16___list_templatesNtB6_11Expectation11return_oncepEBg_
FNDA:0,_RINvMs6_NtNtNtNtNtCs92oXZPd7plo_16cargo_quickstart8commands5tests20mock_template_loader25___mock_MockTemplateLoader16___list_templatesNtB6_11Expectation12return_constpEBg_
FNDA:0,_RINvMs6_NtNtNtNtNtCs92oXZPd7plo_16cargo_quickstart8commands5tests20mock_template_loader25___mock_MockTemplateLoader16___list_templatesNtB6_11Expectation12returning_stpEBg_
FNDA:0,_RINvMs6_NtNtNtNtNtCs92oXZPd7plo_16cargo_quickstart8commands5tests20mock_template_loader25___mock_MockTemplateLoader16___list_templatesNtB6_11Expectation14return_once_stpEBg_
FNDA:0,_RINvMs6_NtNtNtNtNtCs92oXZPd7plo_16cargo_quickstart8commands5tests20mock_template_loader25___mock_MockTemplateLoader16___list_templatesNtB6_11Expectation15return_const_stpEBg_
FNDA:0,_RINvMs6_NtNtNtNtNtCs92oXZPd7plo_16cargo_quickstart8commands5tests20mock_template_loader25___mock_MockTemplateLoader16___list_templatesNtB6_11Expectation5timespEBg_
FNDA:0,_RINvMs6_NtNtNtNtNtCs92oXZPd7plo_16cargo_quickstart8commands5tests20mock_template_loader25___mock_MockTemplateLoader16___list_templatesNtB6_11Expectation5withfpEBg_
FNDA:0,_RINvMs6_NtNtNtNtNtCs92oXZPd7plo_16cargo_quickstart8commands5tests20mock_template_loader25___mock_MockTemplateLoader16___list_templatesNtB6_11Expectation8withf_stpEBg_
FNDA:0,_RINvMs6_NtNtNtNtNtCs92oXZPd7plo_16cargo_quickstart8commands5tests20mock_template_loader25___mock_MockTemplateLoader16___list_templatesNtB6_11Expectation9returningpEBg_
FNDA:0,_RINvMs6_NtNtNtNtNtCs92oXZPd7plo_16cargo_quickstart8commands5tests20mock_template_loader25___mock_MockTemplateLoader5___newNtB6_11Expectation11return_oncepEBg_
FNDA:0,_RINvMs6_NtNtNtNtNtCs92oXZPd7plo_16cargo_quickstart8commands5tests20mock_template_loader25___mock_MockTemplateLoader5___newNtB6_11Expectation12return_constpEBg_
FNDA:0,_RINvMs6_NtNtNtNtNtCs92oXZPd7plo_16cargo_quickstart8commands5tests20mock_template_loader25___mock_MockTemplateLoader5___newNtB6_11Expectation12returning_stpEBg_
FNDA:0,_RINvMs6_NtNtNtNtNtCs92oXZPd7plo_16cargo_quickstart8commands5tests20mock_template_loader25___mock_MockTemplateLoader5___newNtB6_11Expectation14return_once_stpEBg_
FNDA:0,_RINvMs6_NtNtNtNtNtCs92oXZPd7plo_16cargo_quickstart8commands5tests20mock_template_loader25___mock_MockTemplateLoader5___newNtB6_11Expectation15return_const_stpEBg_
FNDA:0,_RINvMs6_NtNtNtNtNtCs92oXZPd7plo_16cargo_quickstart8commands5tests20mock_template_loader25___mock_MockTemplateLoader5___newNtB6_11Expectation4withpEBg_
FNDA:0,_RINvMs6_NtNtNtNtNtCs92oXZPd7plo_16cargo_quickstart8commands5tests20mock_template_loader25___mock_MockTemplateLoader5___newNtB6_11Expectation5timespEBg_
FNDA:0,_RINvMs6_NtNtNtNtNtCs92oXZPd7plo_16cargo_quickstart8commands5tests20mock_template_loader25___mock_MockTemplateLoader5___newNtB6_11Expectation5withfpEBg_
FNDA:0,_RINvMs6_NtNtNtNtNtCs92oXZPd7plo_16cargo_quickstart8commands5tests20mock_template_loader25___mock_MockTemplateLoader5___newNtB6_11Expectation8withf_stpEBg_
FNDA:0,_RINvMs6_NtNtNtNtNtCs92oXZPd7plo_16cargo_quickstart8commands5tests20mock_template_loader25___mock_MockTemplateLoader5___newNtB6_11Expectation9returningpEBg_
FNDA:0,_RINvMsb_NtNtNtNtNtCs92oXZPd7plo_16cargo_quickstart8commands5tests20mock_template_loader25___mock_MockTemplateLoader5___newNtB6_16ExpectationGuard11return_oncepEBg_
FNDA:0,_RINvMsb_NtNtNtNtNtCs92oXZPd7plo_16cargo_quickstart8commands5tests20mock_template_loader25___mock_MockTemplateLoader5___newNtB6_16ExpectationGuard12return_constpEBg_
FNDA:0,_RINvMsb_NtNtNtNtNtCs92oXZPd7plo_16cargo_quickstart8commands5tests20mock_template_loader25___mock_MockTemplateLoader5___newNtB6_16ExpectationGuard12returning_stpEBg_
FNDA:0,_RINvMsb_NtNtNtNtNtCs92oXZPd7plo_16cargo_quickstart8commands5tests20mock_template_loader25___mock_MockTemplateLoader5___newNtB6_16ExpectationGuard14return_once_stpEBg_
FNDA:0,_RINvMsb_NtNtNtNtNtCs92oXZPd7plo_16cargo_quickstart8commands5tests20mock_template_loader25___mock_MockTemplateLoader5___newNtB6_16ExpectationGuard15return_const_stpEBg_
FNDA:0,_RINvMsb_NtNtNtNtNtCs92oXZPd7plo_16cargo_quickstart8commands5tests20mock_template_loader25___mock_MockTemplateLoader5___newNtB6_16ExpectationGuard4withpEBg_
FNDA:0,_RINvMsb_NtNtNtNtNtCs92oXZPd7plo_16cargo_quickstart8commands5tests20mock_template_loader25___mock_MockTemplateLoader5___newNtB6_16ExpectationGuard5timespEBg_
FNDA:0,_RINvMsb_NtNtNtNtNtCs92oXZPd7plo_16cargo_quickstart8commands5tests20mock_template_loader25___mock_MockTemplateLoader5___newNtB6_16ExpectationGuard5withfpEBg_
FNDA:0,_RINvMsb_NtNtNtNtNtCs92oXZPd7plo_16cargo_quickstart8commands5tests20mock_template_loader25___mock_MockTemplateLoader5___newNtB6_16ExpectationGuard8withf_stpEBg_
FNDA:0,_RINvMsb_NtNtNtNtNtCs92oXZPd7plo_16cargo_quickstart8commands5tests20mock_template_loader25___mock_MockTemplateLoader5___newNtB6_16ExpectationGuard9returningpEBg_
FNDA:0,_RNCINvMs6_NtNtNtNtNtCs92oXZPd7plo_16cargo_quickstart8commands5tests20mock_template_loader25___mock_MockTemplateLoader16___list_templatesNtB8_11Expectation12return_constpE0Bi_
FNDA:0,_RNCINvMs6_NtNtNtNtNtCs92oXZPd7plo_16cargo_quickstart8commands5tests20mock_template_loader25___mock_MockTemplateLoader16___list_templatesNtB8_11Expectation15return_const_stpE0Bi_
FNDA:0,_RNCINvMs6_NtNtNtNtNtCs92oXZPd7plo_16cargo_quickstart8commands5tests20mock_template_loader25___mock_MockTemplateLoader5___newNtB8_11Expectation12return_constpE0Bi_
FNDA:0,_RNCINvMs6_NtNtNtNtNtCs92oXZPd7plo_16cargo_quickstart8commands5tests20mock_template_loader25___mock_MockTemplateLoader5___newNtB8_11Expectation15return_const_stpE0Bi_
FNDA:0,_RNCNvMs0_NtNtNtNtNtCs92oXZPd7plo_16cargo_quickstart8commands5tests20mock_template_loader25___mock_MockTemplateLoader16___list_templatesNtB7_7Matcher7matches0Bh_
FNDA:0,_RNCNvMs0_NtNtNtNtNtCs92oXZPd7plo_16cargo_quickstart8commands5tests20mock_template_loader25___mock_MockTemplateLoader5___newNtB7_7Matcher7matches0Bh_
FNDA:0,_RNCNvMsa_NtNtNtNtNtCs92oXZPd7plo_16cargo_quickstart8commands5tests20mock_template_loader25___mock_MockTemplateLoader16___list_templatesNtB7_12Expectations4call0Bh_
FNDA:0,_RNCNvMsa_NtNtNtNtNtCs92oXZPd7plo_16cargo_quickstart8commands5tests20mock_template_loader25___mock_MockTemplateLoader16___list_templatesNtB7_12Expectations4calls_0Bh_
FNDA:0,_RNCNvMsa_NtNtNtNtNtCs92oXZPd7plo_16cargo_quickstart8commands5tests20mock_template_loader25___mock_MockTemplateLoader5___newNtB7_12Expectations4call0Bh_
FNDA:0,_RNCNvMsa_NtNtNtNtNtCs92oXZPd7plo_16cargo_quickstart8commands5tests20mock_template_loader25___mock_MockTemplateLoader5___newNtB7_12Expectations4calls_0Bh_
FNDA:0,_RNCNvXse_NtNtNtNtNtCs92oXZPd7plo_16cargo_quickstart8commands5tests20mock_template_loader25___mock_MockTemplateLoader5___newNtB7_7ContextNtNtNtCs6FgkbHSHiEg_4core3ops4drop4Drop4drop0Bh_
FNDA:0,_RNvMNtNtNtNtNtCs92oXZPd7plo_16cargo_quickstart8commands5tests20mock_template_loader25___mock_MockTemplateLoader16___list_templatesNtB2_5Rfunc8call_mut
FNDA:0,_RNvMNtNtNtNtNtCs92oXZPd7plo_16cargo_quickstart8commands5tests20mock_template_loader25___mock_MockTemplateLoader5___newNtB2_5Rfunc8call_mut
FNDA:0,_RNvMs0_NtNtNtNtNtCs92oXZPd7plo_16cargo_quickstart8commands5tests20mock_template_loader25___mock_MockTemplateLoader16___list_templatesNtB5_7Matcher7matches
FNDA:0,_RNvMs0_NtNtNtNtNtCs92oXZPd7plo_16cargo_quickstart8commands5tests20mock_template_loader25___mock_MockTemplateLoader5___newNtB5_7Matcher7matches
FNDA:0,_RNvMs4_NtNtNtNtNtCs92oXZPd7plo_16cargo_quickstart8commands5tests20mock_template_loader25___mock_MockTemplateLoader16___list_templatesNtB5_6Common11in_sequence
FNDA:0,_RNvMs4_NtNtNtNtNtCs92oXZPd7plo_16cargo_quickstart8commands5tests20mock_template_loader25___mock_MockTemplateLoader16___list_templatesNtB5_6Common15verify_sequence
FNDA:0,_RNvMs4_NtNtNtNtNtCs92oXZPd7plo_16cargo_quickstart8commands5tests20mock_template_loader25___mock_MockTemplateLoader16___list_templatesNtB5_6Common16satisfy_sequence
FNDA:0,_RNvMs4_NtNtNtNtNtCs92oXZPd7plo_16cargo_quickstart8commands5tests20mock_template_loader25___mock_MockTemplateLoader16___list_templatesNtB5_6Common4call
FNDA:0,_RNvMs4_NtNtNtNtNtCs92oXZPd7plo_16cargo_quickstart8commands5tests20mock_template_loader25___mock_MockTemplateLoader16___list_templatesNtB5_6Common4with
FNDA:0,_RNvMs4_NtNtNtNtNtCs92oXZPd7plo_16cargo_quickstart8commands5tests20mock_template_loader25___mock_MockTemplateLoader16___list_templatesNtB5_6Common5never
FNDA:0,_RNvMs4_NtNtNtNtNtCs92oXZPd7plo_16cargo_quickstart8commands5tests20mock_template_loader25___mock_MockTemplateLoader16___list_templatesNtB5_6Common7is_done
FNDA:0,_RNvMs4_NtNtNtNtNtCs92oXZPd7plo_16cargo_quickstart8commands5tests20mock_template_loader25___mock_MockTemplateLoader16___list_templatesNtB5_6Common7matches
FNDA:0,_RNvMs4_NtNtNtNtNtCs92oXZPd7plo_16cargo_quickstart8commands5tests20mock_template_loader25___mock_MockTemplateLoader5___newNtB5_6Common11in_sequence
FNDA:0,_RNvMs4_NtNtNtNtNtCs92oXZPd7plo_16cargo_quickstart8commands5tests20mock_template_loader25___mock_MockTemplateLoader5___newNtB5_6Common15verify_sequence
FNDA:0,_RNvMs4_NtNtNtNtNtCs92oXZPd7plo_16cargo_quickstart8commands5tests20mock_template_loader25___mock_MockTemplateLoader5___newNtB5_6Common16satisfy_sequence
FNDA:0,_RNvMs4_NtNtNtNtNtCs92oXZPd7plo_16cargo_quickstart8commands5tests20mock_template_loader25___mock_MockTemplateLoader5___newNtB5_6Common4call
FNDA:0,_RNvMs4_NtNtNtNtNtCs92oXZPd7plo_16cargo_quickstart8commands5tests20mock_template_loader25___mock_MockTemplateLoader5___newNtB5_6Common5never
FNDA:0,_RNvMs4_NtNtNtNtNtCs92oXZPd7plo_16cargo_quickstart8commands5tests20mock_template_loader25___mock_MockTemplateLoader5___newNtB5_6Common7is_done
FNDA:0,_RNvMs4_NtNtNtNtNtCs92oXZPd7plo_16cargo_quickstart8commands5tests20mock_template_loader25___mock_MockTemplateLoader5___newNtB5_6Common7matches
FNDA:0,_RNvMs6_NtNtNtNtNtCs92oXZPd7plo_16cargo_quickstart8commands5tests20mock_template_loader25___mock_MockTemplateLoader16___list_templatesNtB5_11Expectation11in_sequence
FNDA:0,_RNvMs6_NtNtNtNtNtCs92oXZPd7plo_16cargo_quickstart8commands5tests20mock_template_loader25___mock_MockTemplateLoader16___list_templatesNtB5_11Expectation3new
FNDA:0,_RNvMs6_NtNtNtNtNtCs92oXZPd7plo_16cargo_quickstart8commands5tests20mock_template_loader25___mock_MockTemplateLoader16___list_templatesNtB5_11Expectation4call
FNDA:0,_RNvMs6_NtNtNtNtNtCs92oXZPd7plo_16cargo_quickstart8commands5tests20mock_template_loader25___mock_MockTemplateLoader16___list_templatesNtB5_11Expectation4once
FNDA:0,_RNvMs6_NtNtNtNtNtCs92oXZPd7plo_16cargo_quickstart8commands5tests20mock_template_loader25___mock_MockTemplateLoader16___list_templatesNtB5_11Expectation4with
FNDA:0,_RNvMs6_NtNtNtNtNtCs92oXZPd7plo_16cargo_quickstart8commands5tests20mock_template_loader25___mock_MockTemplateLoader16___list_templatesNtB5_11Expectation5never
FNDA:0,_RNvMs6_NtNtNtNtNtCs92oXZPd7plo_16cargo_quickstart8commands5tests20mock_template_loader25___mock_MockTemplateLoader16___list_templatesNtB5_11Expectation7is_done
FNDA:0,_RNvMs6_NtNtNtNtNtCs92oXZPd7plo_16cargo_quickstart8commands5tests20mock_template_loader25___mock_MockTemplateLoader16___list_templatesNtB5_11Expectation7matches
FNDA:0,_RNvMs6_NtNtNtNtNtCs92oXZPd7plo_16cargo_quickstart8commands5tests20mock_template_loader25___mock_MockTemplateLoader5___newNtB5_11Expectation11in_sequence
FNDA:0,_RNvMs6_NtNtNtNtNtCs92oXZPd7plo_16cargo_quickstart8commands5tests20mock_template_loader25___mock_MockTemplateLoader5___newNtB5_11Expectation3new
FNDA:0,_RNvMs6_NtNtNtNtNtCs92oXZPd7plo_16cargo_quickstart8commands5tests20mock_template_loader25___mock_MockTemplateLoader5___newNtB5_11Expectation4call
FNDA:0,_RNvMs6_NtNtNtNtNtCs92oXZPd7plo_16cargo_quickstart8commands5tests20mock_template_loader25___mock_MockTemplateLoader5___newNtB5_11Expectation4once
FNDA:0,_RNvMs6_NtNtNtNtNtCs92oXZPd7plo_16cargo_quickstart8commands5tests20mock_template_loader25___mock_MockTemplateLoader5___newNtB5_11Expectation5never
FNDA:0,_RNvMs6_NtNtNtNtNtCs92oXZPd7plo_16cargo_quickstart8commands5tests20mock_template_loader25___mock_MockTemplateLoader5___newNtB5_11Expectation7is_done
FNDA:0,_RNvMs6_NtNtNtNtNtCs92oXZPd7plo_16cargo_quickstart8commands5tests20mock_template_loader25___mock_MockTemplateLoader5___newNtB5_11Expectation7matches
FNDA:0,_RNvMs8_NtNtNtNtNtCs92oXZPd7plo_16cargo_quickstart8commands5tests20mock_template_loader25___mock_MockTemplateLoader16___list_templatesNtB5_12Expectations10checkpoint
FNDA:0,_RNvMs8_NtNtNtNtNtCs92oXZPd7plo_16cargo_quickstart8commands5tests20mock_template_loader25___mock_MockTemplateLoader16___list_templatesNtB5_12Expectations3new
FNDA:0,_RNvMs8_NtNtNtNtNtCs92oXZPd7plo_16cargo_quickstart8commands5tests20mock_template_loader25___mock_MockTemplateLoader16___list_templatesNtB5_12Expectations6expect
FNDA:0,_RNvMs8_NtNtNtNtNtCs92oXZPd7plo_16cargo_quickstart8commands5tests20mock_template_loader25___mock_MockTemplateLoader5___newNtB5_12Expectations10checkpoint
FNDA:0,_RNvMs8_NtNtNtNtNtCs92oXZPd7plo_16cargo_quickstart8commands5tests20mock_template_loader25___mock_MockTemplateLoader5___newNtB5_12Expectations3new
FNDA:0,_RNvMs8_NtNtNtNtNtCs92oXZPd7plo_16cargo_quickstart8commands5tests20mock_template_loader25___mock_MockTemplateLoader5___newNtB5_12Expectations6expect
FNDA:0,_RNvMs_NtNtNtCs92oXZPd7plo_16cargo_quickstart8commands5tests20mock_template_loaderNtB4_18MockTemplateLoader10checkpoint
FNDA:0,_RNvMs_NtNtNtCs92oXZPd7plo_16cargo_quickstart8commands5tests20mock_template_loaderNtB4_18MockTemplateLoader11new_context
FNDA:0,_RNvMs_NtNtNtCs92oXZPd7plo_16cargo_quickstart8commands5tests20mock_template_loaderNtB4_18MockTemplateLoader14list_templates
FNDA:0,_RNvMs_NtNtNtCs92oXZPd7plo_16cargo_quickstart8commands5tests20mock_template_loaderNtB4_18MockTemplateLoader21expect_list_templates
FNDA:0,_RNvMs_NtNtNtCs92oXZPd7plo_16cargo_quickstart8commands5tests20mock_template_loaderNtB4_18MockTemplateLoader3new
FNDA:0,_RNvMsa_NtNtNtNtNtCs92oXZPd7plo_16cargo_quickstart8commands5tests20mock_template_loader25___mock_MockTemplateLoader16___list_templatesNtB5_12Expectations4call
FNDA:0,_RNvMsa_NtNtNtNtNtCs92oXZPd7plo_16cargo_quickstart8commands5tests20mock_template_loader25___mock_MockTemplateLoader5___newNtB5_12Expectations4call
FNDA:0,_RNvMsb_NtNtNtNtNtCs92oXZPd7plo_16cargo_quickstart8commands5tests20mock_template_loader25___mock_MockTemplateLoader5___newNtB5_16ExpectationGuard11in_sequence
FNDA:0,_RNvMsb_NtNtNtNtNtCs92oXZPd7plo_16cargo_quickstart8commands5tests20mock_template_loader25___mock_MockTemplateLoader5___newNtB5_16ExpectationGuard3new
FNDA:0,_RNvMsb_NtNtNtNtNtCs92oXZPd7plo_16cargo_quickstart8commands5tests20mock_template_loader25___mock_MockTemplateLoader5___newNtB5_16ExpectationGuard4once
FNDA:0,_RNvMsb_NtNtNtNtNtCs92oXZPd7plo_16cargo_quickstart8commands5tests20mock_template_loader25___mock_MockTemplateLoader5___newNtB5_16ExpectationGuard5never
FNDA:0,_RNvMsc_NtNtNtNtNtCs92oXZPd7plo_16cargo_quickstart8commands5tests20mock_template_loader25___mock_MockTemplateLoader5___newNtB5_7Context10checkpoint
FNDA:0,_RNvMsc_NtNtNtNtNtCs92oXZPd7plo_16cargo_quickstart8commands5tests20mock_template_loader25___mock_MockTemplateLoader5___newNtB5_7Context13do_checkpoint
FNDA:0,_RNvMsc_NtNtNtNtNtCs92oXZPd7plo_16cargo_quickstart8commands5tests20mock_template_loader25___mock_MockTemplateLoader5___newNtB5_7Context6expect
FNDA:0,_RNvNtNtNtNtNtCs92oXZPd7plo_16cargo_quickstart8commands5tests20mock_template_loader25___mock_MockTemplateLoader5___new16get_expectations
FNDA:0,_RNvXNtNtNtCs92oXZPd7plo_16cargo_quickstart8commands5tests20mock_template_loaderNtB2_18MockTemplateLoaderNtNtCs6FgkbHSHiEg_4core7default7Default7default
FNDA:0,_RNvXs1_NtNtNtNtNtCs92oXZPd7plo_16cargo_quickstart8commands5tests20mock_template_loader25___mock_MockTemplateLoader16___list_templatesNtB5_7MatcherNtNtCs6FgkbHSHiEg_4core7default7Default7default
FNDA:0,_RNvXs1_NtNtNtNtNtCs92oXZPd7plo_16cargo_quickstart8commands5tests20mock_template_loader25___mock_MockTemplateLoader5___newNtB5_7MatcherNtNtCs6FgkbHSHiEg_4core7default7Default7default
FNDA:0,_RNvXs2_NtNtNtNtNtCs92oXZPd7plo_16cargo_quickstart8commands5tests20mock_template_loader25___mock_MockTemplateLoader16___list_templatesNtB5_7MatcherNtNtCs6FgkbHSHiEg_4core3fmt7Display3fmt
FNDA:0,_RNvXs3_NtNtNtNtNtCs92oXZPd7plo_16cargo_quickstart8commands5tests20mock_template_loader25___mock_MockTemplateLoader16___list_templatesNtB5_6CommonNtNtCs6FgkbHSHiEg_4core7default7Default7default
FNDA:0,_RNvXs3_NtNtNtNtNtCs92oXZPd7plo_16cargo_quickstart8commands5tests20mock_template_loader25___mock_MockTemplateLoader5___newNtB5_6CommonNtNtCs6FgkbHSHiEg_4core7default7Default7default
FNDA:0,_RNvXs5_NtNtNtNtNtCs92oXZPd7plo_16cargo_quickstart8commands5tests20mock_template_loader25___mock_MockTemplateLoader16___list_templatesNtB5_6CommonNtNtNtCs6FgkbHSHiEg_4core3ops4drop4Drop4drop
FNDA:0,_RNvXs7_NtNtNtNtNtCs92oXZPd7plo_16cargo_quickstart8commands5tests20mock_template_loader25___mock_MockTemplateLoader16___list_templatesNtB5_11ExpectationNtNtCs6FgkbHSHiEg_4core7default7Default7default
FNDA:0,_RNvXs7_NtNtNtNtNtCs92oXZPd7plo_16cargo_quickstart8commands5tests20mock_template_loader25___mock_MockTemplateLoader5___newNtB5_11ExpectationNtNtCs6FgkbHSHiEg_4core7default7Default7default
FNDA:0,_RNvXs9_NtNtNtNtNtCs92oXZPd7plo_16cargo_quickstart8commands5tests20mock_template_loader25___mock_MockTemplateLoader16___list_templatesNtB5_12ExpectationsNtNtCs6FgkbHSHiEg_4core7default7Default7default
FNDA:0,_RNvXs9_NtNtNtNtNtCs92oXZPd7plo_16cargo_quickstart8commands5tests20mock_template_loader25___mock_MockTemplateLoader5___newNtB5_12ExpectationsNtNtCs6FgkbHSHiEg_4core7default7Default7default
FNDA:0,_RNvXs_NtNtNtNtNtCs92oXZPd7plo_16cargo_quickstart8commands5tests20mock_template_loader25___mock_MockTemplateLoader16___list_templatesNtB4_5RfuncNtNtCs6FgkbHSHiEg_4core7default7Default7default
FNDA:0,_RNvXs_NtNtNtNtNtCs92oXZPd7plo_16cargo_quickstart8commands5tests20mock_template_loader25___mock_MockTemplateLoader5___newNtB4_5RfuncNtNtCs6FgkbHSHiEg_4core7default7Default7default
FNDA:0,_RNvXsd_NtNtNtNtNtCs92oXZPd7plo_16cargo_quickstart8commands5tests20mock_template_loader25___mock_MockTemplateLoader5___newNtB5_7ContextNtNtCs6FgkbHSHiEg_4core7default7Default7default
FNDA:0,_RNvXse_NtNtNtNtNtCs92oXZPd7plo_16cargo_quickstart8commands5tests20mock_template_loader25___mock_MockTemplateLoader5___newNtB5_7ContextNtNtNtCs6FgkbHSHiEg_4core3ops4drop4Drop4drop
FNF:11
FNH:10
DA:17,1
DA:18,1
DA:19,1
DA:22,1
DA:23,1
DA:24,1
DA:27,1
DA:29,1
DA:30,1
DA:33,1
DA:34,1
DA:36,1
DA:37,1
DA:41,1
DA:42,1
DA:43,1
DA:47,6
DA:48,6
DA:49,6
DA:72,0
DA:80,1
DA:82,1
DA:83,0
DA:84,0
DA:85,1
DA:90,1
DA:91,1
DA:92,1
DA:93,0
DA:95,1
DA:99,1
DA:101,1
DA:102,0
DA:103,0
DA:104,1
DA:106,1
DA:107,1
DA:108,1
DA:109,0
DA:112,1
DA:113,1
DA:117,1
DA:119,1
DA:120,0
DA:121,0
DA:122,1
DA:128,1
DA:129,1
DA:130,1
DA:131,1
DA:133,1
DA:134,1
DA:135,1
DA:136,0
DA:140,1
DA:143,1
DA:144,1
DA:149,1
DA:151,1
DA:152,0
DA:153,0
DA:154,1
DA:156,1
DA:157,1
DA:158,1
DA:159,1
DA:160,1
DA:161,1
DA:162,1
DA:163,1
DA:164,1
DA:165,1
DA:168,1
DA:169,1
DA:170,1
DA:174,1
DA:176,1
DA:177,0
DA:178,0
DA:179,1
DA:182,1
DA:183,1
DA:185,1
DA:186,1
DA:187,1
DA:188,1
DA:189,1
DA:190,1
DA:191,1
DA:192,1
DA:193,1
DA:194,1
DA:195,1
DA:199,1
DA:200,1
DA:201,1
DA:202,0
DA:205,1
DA:206,1
BRF:0
BRH:0
LF:99
LH:84
end_of_record
SF:/Users/smeya/git/cargo-quickstart/crates/quickstart-cli/src/commands/new.rs
FN:14,_RNvNtNtCsj95mf2ixomG_16cargo_quickstart8commands3new7execute
FN:63,_RNCNvNtNtCsj95mf2ixomG_16cargo_quickstart8commands3new7execute0B7_
FN:63,_RNCNvNtNtCs92oXZPd7plo_16cargo_quickstart8commands3new7execute0B7_
FN:14,_RNvNtNtCs92oXZPd7plo_16cargo_quickstart8commands3new7execute
FN:73,_RNvNtNtNtCs92oXZPd7plo_16cargo_quickstart8commands3new5tests22setup_test_environment
FN:182,_RNvNtNtNtCs92oXZPd7plo_16cargo_quickstart8commands3new5tests24cleanup_test_environment
FN:193,_RNvNtNtNtCs92oXZPd7plo_16cargo_quickstart8commands3new5testss_28test_execute_creates_project
FN:237,_RNvNtNtNtCs92oXZPd7plo_16cargo_quickstart8commands3new5testss_36test_execute_creates_library_project
FN:278,_RNvNtNtNtCs92oXZPd7plo_16cargo_quickstart8commands3new5testss_40test_execute_fails_on_existing_directory
FNDA:0,_RNvNtNtCsj95mf2ixomG_16cargo_quickstart8commands3new7execute
FNDA:0,_RNCNvNtNtCsj95mf2ixomG_16cargo_quickstart8commands3new7execute0B7_
FNDA:3,_RNCNvNtNtCs92oXZPd7plo_16cargo_quickstart8commands3new7execute0B7_
FNDA:4,_RNvNtNtCs92oXZPd7plo_16cargo_quickstart8commands3new7execute
FNDA:2,_RNvNtNtNtCs92oXZPd7plo_16cargo_quickstart8commands3new5tests22setup_test_environment
FNDA:2,_RNvNtNtNtCs92oXZPd7plo_16cargo_quickstart8commands3new5tests24cleanup_test_environment
FNDA:1,_RNvNtNtNtCs92oXZPd7plo_16cargo_quickstart8commands3new5testss_28test_execute_creates_project
FNDA:1,_RNvNtNtNtCs92oXZPd7plo_16cargo_quickstart8commands3new5testss_36test_execute_creates_library_project
FNDA:1,_RNvNtNtNtCs92oXZPd7plo_16cargo_quickstart8commands3new5testss_40test_execute_fails_on_existing_directory
FNF:7
FNH:7
DA:14,4
DA:15,4
DA:18,4
DA:19,1
DA:21,3
DA:25,4
DA:26,4
DA:28,0
DA:32,4
DA:33,1
DA:34,1
DA:35,1
DA:36,1
DA:37,3
DA:40,3
DA:41,3
DA:42,3
DA:43,3
DA:44,3
DA:45,3
DA:46,3
DA:49,3
DA:50,3
DA:51,3
DA:52,3
DA:53,3
DA:54,3
DA:55,3
DA:56,3
DA:57,3
DA:60,3
DA:61,3
DA:62,3
DA:63,3
DA:65,4
DA:73,2
DA:75,2
DA:76,0
DA:77,0
DA:78,0
DA:79,0
DA:80,2
DA:83,2
DA:86,2
DA:89,2
DA:90,2
DA:93,2
DA:94,2
DA:97,2
DA:98,2
DA:99,2
DA:100,2
DA:101,2
DA:104,2
DA:105,2
DA:111,0
DA:114,2
DA:115,2
DA:117,0
DA:120,2
DA:121,2
DA:137,0
DA:140,2
DA:141,2
DA:143,0
DA:146,2
DA:147,2
DA:174,0
DA:177,2
DA:179,2
DA:180,2
DA:182,2
DA:184,2
DA:185,0
DA:186,2
DA:188,2
DA:189,2
DA:190,2
DA:193,1
DA:195,1
DA:196,0
DA:197,0
DA:198,1
DA:200,1
DA:201,1
DA:203,1
DA:204,1
DA:205,1
DA:206,1
DA:207,1
DA:208,1
DA:209,1
DA:210,1
DA:211,1
DA:212,1
DA:215,1
DA:216,1
DA:218,1
DA:221,1
DA:224,1
DA:226,1
DA:227,1
DA:228,1
DA:229,1
DA:230,0
DA:233,1
DA:234,1
DA:237,1
DA:239,1
DA:240,0
DA:241,0
DA:242,1
DA:244,1
DA:245,1
DA:247,1
DA:248,1
DA:249,1
DA:250,1
DA:251,1
DA:252,1
DA:253,1
DA:254,1
DA:255,1
DA:256,1
DA:258,1
DA:261,1
DA:263,1
DA:264,1
DA:265,1
DA:266,1
DA:267,0
DA:269,1
DA:270,1
DA:271,0
DA:274,1
DA:275,1
DA:278,1
DA:280,1
DA:281,0
DA:282,0
DA:283,1
DA:285,1
DA:286,1
DA:287,1
DA:289,1
DA:290,1
DA:291,1
DA:292,1
DA:293,1
DA:294,1
DA:295,1
DA:296,1
DA:297,1
DA:298,1
DA:300,1
DA:301,1
DA:302,1
DA:303,0
DA:306,1
DA:307,1
BRF:0
BRH:0
LF:160
LH:139
end_of_record
SF:/Users/smeya/git/cargo-quickstart/crates/quickstart-cli/src/commands/templates.rs
FN:10,_RNvNtNtCsj95mf2ixomG_16cargo_quickstart8commands9templates17collect_templates
FN:51,_RNvNtNtCsj95mf2ixomG_16cargo_quickstart8commands9templates17display_templates
FN:33,_RNCNCNvNtNtCsj95mf2ixomG_16cargo_quickstart8commands9templates17collect_templates00B9_
FN:34,_RNCNCNvNtNtCsj95mf2ixomG_16cargo_quickstart8commands9templates17collect_templates0s_0B9_
FN:31,_RNCNvNtNtCsj95mf2ixomG_16cargo_quickstart8commands9templates17collect_templates0B7_
FN:10,_RNvNtNtCs92oXZPd7plo_16cargo_quickstart8commands9templates17collect_templates
FN:51,_RNvNtNtCs92oXZPd7plo_16cargo_quickstart8commands9templates17display_templates
FN:33,_RNCNCNvNtNtCs92oXZPd7plo_16cargo_quickstart8commands9templates17collect_templates00B9_
FN:34,_RNCNCNvNtNtCs92oXZPd7plo_16cargo_quickstart8commands9templates17collect_templates0s_0B9_
FN:31,_RNCNvNtNtCs92oXZPd7plo_16cargo_quickstart8commands9templates17collect_templates0B7_
FN:70,_RNvNtNtNtCs92oXZPd7plo_16cargo_quickstart8commands9templates5testss_28test_collect_templates_empty
FN:85,_RNvNtNtNtCs92oXZPd7plo_16cargo_quickstart8commands9templates5testss_35test_collect_templates_with_content
FNDA:0,_RNvNtNtCsj95mf2ixomG_16cargo_quickstart8commands9templates17collect_templates
FNDA:0,_RNvNtNtCsj95mf2ixomG_16cargo_quickstart8commands9templates17display_templates
FNDA:0,_RNCNCNvNtNtCsj95mf2ixomG_16cargo_quickstart8commands9templates17collect_templates00B9_
FNDA:0,_RNCNCNvNtNtCsj95mf2ixomG_16cargo_quickstart8commands9templates17collect_templates0s_0B9_
FNDA:0,_RNCNvNtNtCsj95mf2ixomG_16cargo_quickstart8commands9templates17collect_templates0B7_
FNDA:3,_RNvNtNtCs92oXZPd7plo_16cargo_quickstart8commands9templates17collect_templates
FNDA:1,_RNvNtNtCs92oXZPd7plo_16cargo_quickstart8commands9templates17display_templates
FNDA:53,_RNCNCNvNtNtCs92oXZPd7plo_16cargo_quickstart8commands9templates17collect_templates00B9_
FNDA:0,_RNCNCNvNtNtCs92oXZPd7plo_16cargo_quickstart8commands9templates17collect_templates0s_0B9_
FNDA:53,_RNCNvNtNtCs92oXZPd7plo_16cargo_quickstart8commands9templates17collect_templates0B7_
FNDA:1,_RNvNtNtNtCs92oXZPd7plo_16cargo_quickstart8commands9templates5testss_28test_collect_templates_empty
FNDA:1,_RNvNtNtNtCs92oXZPd7plo_16cargo_quickstart8commands9templates5testss_35test_collect_templates_with_content
FNF:7
FNH:6
DA:10,3
DA:11,3
DA:12,3
DA:14,3
DA:16,9
DA:17,18
DA:18,12
DA:19,12
DA:21,12
DA:22,6
DA:23,6
DA:27,12
DA:28,5
DA:29,5
DA:30,5
DA:31,53
DA:32,53
DA:33,53
DA:34,53
DA:35,53
DA:36,5
DA:37,5
DA:38,5
DA:40,7
DA:41,7
DA:42,7
DA:47,3
DA:48,3
DA:51,1
DA:52,1
DA:53,0
DA:54,0
DA:55,1
DA:56,5
DA:57,4
DA:58,56
DA:59,52
DA:60,52
DA:63,1
DA:70,1
DA:72,1
DA:73,0
DA:74,0
DA:75,1
DA:77,1
DA:78,1
DA:79,1
DA:80,1
DA:81,1
DA:82,1
DA:85,1
DA:87,1
DA:88,0
DA:89,0
DA:90,1
DA:92,1
DA:93,1
DA:94,1
DA:95,1
DA:97,1
DA:98,1
DA:99,1
DA:100,1
DA:101,1
BRF:0
BRH:0
LF:67
LH:60
end_of_record
SF:/Users/smeya/git/cargo-quickstart/crates/quickstart-cli/src/errors.rs
FN:61,_RNCNvXNtCsj95mf2ixomG_16cargo_quickstart6errorsINtNtCs6FgkbHSHiEg_4core6result6ResultuNtCsipWU5uLanC_4eyre6ReportEINtB4_15CommandErrorExtuE15command_context0B6_
FN:60,_RNvXNtCsj95mf2ixomG_16cargo_quickstart6errorsINtNtCs6FgkbHSHiEg_4core6result6ResultuNtCsipWU5uLanC_4eyre6ReportEINtB2_15CommandErrorExtuE15command_contextB4_
FN:76,_RNCNvXININtCsj95mf2ixomG_16cargo_quickstart6errorss_0pEINtNtCs6FgkbHSHiEg_4core6result6ResultpNtCsipWU5uLanC_4eyre6ReportEINtB7_14SuggestionsExtpE7suggest0B9_
FN:41,_RNvNtCsj95mf2ixomG_16cargo_quickstart6errors17with_path_context
FN:47,_RNvNtCsj95mf2ixomG_16cargo_quickstart6errors9cli_error
FN:75,_RNvXININtCsj95mf2ixomG_16cargo_quickstart6errorss_0pEINtNtCs6FgkbHSHiEg_4core6result6ResultpNtCsipWU5uLanC_4eyre6ReportEINtB5_14SuggestionsExtpE7suggestB7_
FN:35,_RNvNtCsj95mf2ixomG_16cargo_quickstart6errors5setup
FN:97,_RNvNtNtCs92oXZPd7plo_16cargo_quickstart6errors5testss_10test_setup
FN:41,_RNvNtCs92oXZPd7plo_16cargo_quickstart6errors17with_path_context
FN:47,_RNvNtCs92oXZPd7plo_16cargo_quickstart6errors9cli_error
FN:121,_RNvNtNtCs92oXZPd7plo_16cargo_quickstart6errors5testss_14test_cli_error
FN:159,_RNvNtNtCs92oXZPd7plo_16cargo_quickstart6errors5testss_20test_suggestions_ext
FN:134,_RNvNtNtCs92oXZPd7plo_16cargo_quickstart6errors5testss_22test_command_error_ext
FN:104,_RNvNtNtCs92oXZPd7plo_16cargo_quickstart6errors5testss_22test_with_path_context
FN:61,_RNCNvXNtCs92oXZPd7plo_16cargo_quickstart6errorsINtNtCs6FgkbHSHiEg_4core6result6ResultlNtCsipWU5uLanC_4eyre6ReportEINtB4_15CommandErrorExtlE15command_context0B6_
FN:61,_RNCNvXNtCs92oXZPd7plo_16cargo_quickstart6errorsINtNtCs6FgkbHSHiEg_4core6result6ResultuNtCsipWU5uLanC_4eyre6ReportEINtB4_15CommandErrorExtuE15command_context0B6_
FN:76,_RNCNvXs_NtCs92oXZPd7plo_16cargo_quickstart6errorsINtNtCs6FgkbHSHiEg_4core6result6ResultlNtCsipWU5uLanC_4eyre6ReportEINtB6_14SuggestionsExtlE7suggest0B8_
FN:60,_RNvXNtCs92oXZPd7plo_16cargo_quickstart6errorsINtNtCs6FgkbHSHiEg_4core6result6ResultlNtCsipWU5uLanC_4eyre6ReportEINtB2_15CommandErrorExtlE15command_contextB4_
FN:60,_RNvXNtCs92oXZPd7plo_16cargo_quickstart6errorsINtNtCs6FgkbHSHiEg_4core6result6ResultuNtCsipWU5uLanC_4eyre6ReportEINtB2_15CommandErrorExtuE15command_contextB4_
FN:75,_RNvXs_NtCs92oXZPd7plo_16cargo_quickstart6errorsINtNtCs6FgkbHSHiEg_4core6result6ResultlNtCsipWU5uLanC_4eyre6ReportEINtB4_14SuggestionsExtlE7suggestB6_
FN:35,_RNvNtCs92oXZPd7plo_16cargo_quickstart6errors5setup
FNDA:0,_RNCNvXNtCsj95mf2ixomG_16cargo_quickstart6errorsINtNtCs6FgkbHSHiEg_4core6result6ResultuNtCsipWU5uLanC_4eyre6ReportEINtB4_15CommandErrorExtuE15command_context0B6_
FNDA:0,_RNvXNtCsj95mf2ixomG_16cargo_quickstart6errorsINtNtCs6FgkbHSHiEg_4core6result6ResultuNtCsipWU5uLanC_4eyre6ReportEINtB2_15CommandErrorExtuE15command_contextB4_
FNDA:0,_RNCNvXININtCsj95mf2ixomG_16cargo_quickstart6errorss_0pEINtNtCs6FgkbHSHiEg_4core6result6ResultpNtCsipWU5uLanC_4eyre6ReportEINtB7_14SuggestionsExtpE7suggest0B9_
FNDA:0,_RNvNtCsj95mf2ixomG_16cargo_quickstart6errors17with_path_context
FNDA:0,_RNvNtCsj95mf2ixomG_16cargo_quickstart6errors9cli_error
FNDA:0,_RNvXININtCsj95mf2ixomG_16cargo_quickstart6errorss_0pEINtNtCs6FgkbHSHiEg_4core6result6ResultpNtCsipWU5uLanC_4eyre6ReportEINtB5_14SuggestionsExtpE7suggestB7_
FNDA:5,_RNvNtCsj95mf2ixomG_16cargo_quickstart6errors5setup
FNDA:1,_RNvNtNtCs92oXZPd7plo_16cargo_quickstart6errors5testss_10test_setup
FNDA:1,_RNvNtCs92oXZPd7plo_16cargo_quickstart6errors17with_path_context
FNDA:1,_RNvNtCs92oXZPd7plo_16cargo_quickstart6errors9cli_error
FNDA:1,_RNvNtNtCs92oXZPd7plo_16cargo_quickstart6errors5testss_14test_cli_error
FNDA:1,_RNvNtNtCs92oXZPd7plo_16cargo_quickstart6errors5testss_20test_suggestions_ext
FNDA:1,_RNvNtNtCs92oXZPd7plo_16cargo_quickstart6errors5testss_22test_command_error_ext
FNDA:1,_RNvNtNtCs92oXZPd7plo_16cargo_quickstart6errors5testss_22test_with_path_context
FNDA:1,_RNCNvXNtCs92oXZPd7plo_16cargo_quickstart6errorsINtNtCs6FgkbHSHiEg_4core6result6ResultlNtCsipWU5uLanC_4eyre6ReportEINtB4_15CommandErrorExtlE15command_context0B6_
FNDA:1,_RNCNvXNtCs92oXZPd7plo_16cargo_quickstart6errorsINtNtCs6FgkbHSHiEg_4core6result6ResultuNtCsipWU5uLanC_4eyre6ReportEINtB4_15CommandErrorExtuE15command_context0B6_
FNDA:2,_RNCNvXs_NtCs92oXZPd7plo_16cargo_quickstart6errorsINtNtCs6FgkbHSHiEg_4core6result6ResultlNtCsipWU5uLanC_4eyre6ReportEINtB6_14SuggestionsExtlE7suggest0B8_
FNDA:2,_RNvXNtCs92oXZPd7plo_16cargo_quickstart6errorsINtNtCs6FgkbHSHiEg_4core6result6ResultlNtCsipWU5uLanC_4eyre6ReportEINtB2_15CommandErrorExtlE15command_contextB4_
FNDA:6,_RNvXNtCs92oXZPd7plo_16cargo_quickstart6errorsINtNtCs6FgkbHSHiEg_4core6result6ResultuNtCsipWU5uLanC_4eyre6ReportEINtB2_15CommandErrorExtuE15command_contextB4_
FNDA:3,_RNvXs_NtCs92oXZPd7plo_16cargo_quickstart6errorsINtNtCs6FgkbHSHiEg_4core6result6ResultlNtCsipWU5uLanC_4eyre6ReportEINtB4_14SuggestionsExtlE7suggestB6_
FNDA:0,_RNvNtCs92oXZPd7plo_16cargo_quickstart6errors5setup
FNF:12
FNH:12
DA:35,5
DA:36,5
DA:37,5
DA:41,1
DA:42,1
DA:43,1
DA:47,1
DA:48,1
DA:49,1
DA:60,8
DA:61,8
DA:62,2
DA:63,2
DA:64,2
DA:65,8
DA:75,3
DA:76,3
DA:77,2
DA:78,2
DA:79,1
DA:80,3
DA:81,2
DA:82,2
DA:83,1
DA:84,2
DA:85,2
DA:86,3
DA:97,1
DA:100,1
DA:101,1
DA:104,1
DA:105,1
DA:106,1
DA:107,1
DA:110,1
DA:111,1
DA:112,1
DA:113,0
DA:118,1
DA:121,1
DA:122,1
DA:123,1
DA:126,1
DA:127,1
DA:128,1
DA:129,0
DA:131,1
DA:134,1
DA:136,1
DA:137,1
DA:138,1
DA:139,1
DA:140,1
DA:141,0
DA:144,1
DA:145,1
DA:146,1
DA:149,1
DA:150,1
DA:151,1
DA:152,1
DA:153,0
DA:155,0
DA:156,1
DA:159,1
DA:161,1
DA:162,1
DA:163,1
DA:164,1
DA:165,1
DA:166,0
DA:169,1
DA:170,1
DA:171,1
DA:174,1
DA:175,1
DA:176,1
DA:177,1
DA:178,0
DA:180,0
DA:183,1
DA:184,1
DA:185,1
DA:188,1
DA:189,1
DA:190,1
DA:191,1
DA:192,0
DA:194,0
DA:195,1
BRF:0
BRH:0
LF:92
LH:82
end_of_record
SF:/Users/smeya/git/cargo-quickstart/crates/quickstart-cli/src/main.rs
FN:14,_RNCNvCsj95mf2ixomG_16cargo_quickstart4main0B3_
FN:25,_RNCNvCsj95mf2ixomG_16cargo_quickstart4mains0_0B3_
FN:28,_RNCNvCsj95mf2ixomG_16cargo_quickstart4mains1_0B3_
FN:32,_RNCNvCsj95mf2ixomG_16cargo_quickstart4mains2_0B3_
FN:35,_RNCNvCsj95mf2ixomG_16cargo_quickstart4mains3_0B3_
FN:22,_RNCNvCsj95mf2ixomG_16cargo_quickstart4mains_0B3_
FN:12,_RNvCsj95mf2ixomG_16cargo_quickstart4main
FN:61,_RNvNtCs92oXZPd7plo_16cargo_quickstart5testss_14test_cli_parse
FN:175,_RNvNtCs92oXZPd7plo_16cargo_quickstart5testss_20test_command_routing
FN:74,_RNvNtCs92oXZPd7plo_16cargo_quickstart5testss_21test_error_conversion
FN:53,_RNvNtCs92oXZPd7plo_16cargo_quickstart5testss_24test_main_error_handling
FN:84,_RNvNtCs92oXZPd7plo_16cargo_quickstart5testss_24test_new_command_parsing
FN:109,_RNvNtCs92oXZPd7plo_16cargo_quickstart5testss_25test_init_command_parsing
FN:161,_RNvNtCs92oXZPd7plo_16cargo_quickstart5testss_27test_doctor_command_parsing
FN:137,_RNvNtCs92oXZPd7plo_16cargo_quickstart5testss_32test_completions_command_parsing
FN:14,_RNCNvCs92oXZPd7plo_16cargo_quickstart4main0B3_
FN:25,_RNCNvCs92oXZPd7plo_16cargo_quickstart4mains0_0B3_
FN:28,_RNCNvCs92oXZPd7plo_16cargo_quickstart4mains1_0B3_
FN:32,_RNCNvCs92oXZPd7plo_16cargo_quickstart4mains2_0B3_
FN:35,_RNCNvCs92oXZPd7plo_16cargo_quickstart4mains3_0B3_
FN:22,_RNCNvCs92oXZPd7plo_16cargo_quickstart4mains_0B3_
FN:12,_RNvCs92oXZPd7plo_16cargo_quickstart4main
FNDA:0,_RNCNvCsj95mf2ixomG_16cargo_quickstart4main0B3_
FNDA:0,_RNCNvCsj95mf2ixomG_16cargo_quickstart4mains0_0B3_
FNDA:0,_RNCNvCsj95mf2ixomG_16cargo_quickstart4mains1_0B3_
FNDA:0,_RNCNvCsj95mf2ixomG_16cargo_quickstart4mains2_0B3_
FNDA:0,_RNCNvCsj95mf2ixomG_16cargo_quickstart4mains3_0B3_
FNDA:0,_RNCNvCsj95mf2ixomG_16cargo_quickstart4mains_0B3_
FNDA:5,_RNvCsj95mf2ixomG_16cargo_quickstart4main
FNDA:1,_RNvNtCs92oXZPd7plo_16cargo_quickstart5testss_14test_cli_parse
FNDA:1,_RNvNtCs92oXZPd7plo_16cargo_quickstart5testss_20test_command_routing
FNDA:1,_RNvNtCs92oXZPd7plo_16cargo_quickstart5testss_21test_error_conversion
FNDA:1,_RNvNtCs92oXZPd7plo_16cargo_quickstart5testss_24test_main_error_handling
FNDA:1,_RNvNtCs92oXZPd7plo_16cargo_quickstart5testss_24test_new_command_parsing
FNDA:1,_RNvNtCs92oXZPd7plo_16cargo_quickstart5testss_25test_init_command_parsing
FNDA:1,_RNvNtCs92oXZPd7plo_16cargo_quickstart5testss_27test_doctor_command_parsing
FNDA:1,_RNvNtCs92oXZPd7plo_16cargo_quickstart5testss_32test_completions_command_parsing
FNDA:0,_RNCNvCs92oXZPd7plo_16cargo_quickstart4main0B3_
FNDA:0,_RNCNvCs92oXZPd7plo_16cargo_quickstart4mains0_0B3_
FNDA:0,_RNCNvCs92oXZPd7plo_16cargo_quickstart4mains1_0B3_
FNDA:0,_RNCNvCs92oXZPd7plo_16cargo_quickstart4mains2_0B3_
FNDA:0,_RNCNvCs92oXZPd7plo_16cargo_quickstart4mains3_0B3_
FNDA:0,_RNCNvCs92oXZPd7plo_16cargo_quickstart4mains_0B3_
FNDA:0,_RNvCs92oXZPd7plo_16cargo_quickstart4main
FNF:15
FNH:9
DA:12,5
DA:14,5
DA:17,5
DA:20,5
DA:21,0
DA:22,0
DA:24,0
DA:25,0
DA:28,0
DA:31,0
DA:32,0
DA:35,5
DA:39,5
DA:40,5
DA:53,1
DA:56,1
DA:57,1
DA:58,1
DA:61,1
DA:63,1
DA:65,1
DA:66,1
DA:67,1
DA:68,1
DA:69,0
DA:71,1
DA:74,1
DA:76,1
DA:77,1
DA:79,1
DA:80,1
DA:81,1
DA:84,1
DA:86,1
DA:87,1
DA:88,1
DA:89,1
DA:90,1
DA:91,1
DA:92,1
DA:93,1
DA:94,1
DA:96,1
DA:97,1
DA:98,1
DA:99,1
DA:100,1
DA:101,1
DA:102,1
DA:104,0
DA:106,1
DA:109,1
DA:111,1
DA:112,1
DA:113,1
DA:114,1
DA:115,1
DA:116,1
DA:117,1
DA:118,1
DA:119,1
DA:120,1
DA:121,1
DA:123,1
DA:124,1
DA:125,1
DA:126,1
DA:127,1
DA:128,1
DA:129,1
DA:131,0
DA:133,1
DA:137,1
DA:142,1
DA:143,1
DA:144,1
DA:145,1
DA:146,1
DA:147,1
DA:148,1
DA:150,1
DA:151,1
DA:152,1
DA:153,1
DA:155,0
DA:157,1
DA:161,1
DA:163,1
DA:165,1
DA:166,1
DA:167,1
DA:168,1
DA:169,0
DA:171,1
DA:175,1
DA:180,1
DA:181,1
DA:182,1
DA:183,1
DA:184,1
DA:185,1
DA:186,1
DA:187,1
DA:188,1
DA:189,1
DA:191,1
DA:192,1
DA:193,0
DA:195,1
DA:198,1
DA:199,1
DA:200,1
DA:201,1
DA:202,1
DA:203,1
DA:204,1
DA:205,1
DA:206,1
DA:207,1
DA:208,1
DA:210,1
DA:211,1
DA:212,0
DA:214,1
DA:217,1
DA:218,1
DA:219,0
DA:221,1
DA:222,1
BRF:0
BRH:0
LF:135
LH:114
end_of_record
SF:/Users/smeya/git/cargo-quickstart/crates/quickstart-cli/src/ui/output.rs
FN:15,_RNvNtNtCsj95mf2ixomG_16cargo_quickstart2ui6output4info
FN:29,_RNvNtNtCsj95mf2ixomG_16cargo_quickstart2ui6output5error
FN:35,_RNvNtNtCsj95mf2ixomG_16cargo_quickstart2ui6output6header
FN:41,_RNvNtNtCsj95mf2ixomG_16cargo_quickstart2ui6output7section
FN:8,_RNvNtNtCsj95mf2ixomG_16cargo_quickstart2ui6output7success
FN:22,_RNvNtNtCsj95mf2ixomG_16cargo_quickstart2ui6output7warning
FN:47,_RNvNtNtCsj95mf2ixomG_16cargo_quickstart2ui6output9key_value
FN:54,_RNvNtNtCsj95mf2ixomG_16cargo_quickstart2ui6output9list_item
FN:60,_RNvNtNtCsj95mf2ixomG_16cargo_quickstart2ui6output7confirm
FN:15,_RNvNtNtCs92oXZPd7plo_16cargo_quickstart2ui6output4info
FN:29,_RNvNtNtCs92oXZPd7plo_16cargo_quickstart2ui6output5error
FN:35,_RNvNtNtCs92oXZPd7plo_16cargo_quickstart2ui6output6header
FN:41,_RNvNtNtCs92oXZPd7plo_16cargo_quickstart2ui6output7section
FN:8,_RNvNtNtCs92oXZPd7plo_16cargo_quickstart2ui6output7success
FN:22,_RNvNtNtCs92oXZPd7plo_16cargo_quickstart2ui6output7warning
FN:47,_RNvNtNtCs92oXZPd7plo_16cargo_quickstart2ui6output9key_value
FN:54,_RNvNtNtCs92oXZPd7plo_16cargo_quickstart2ui6output9list_item
FN:77,_RNvNtNtNtCs92oXZPd7plo_16cargo_quickstart2ui6output5testss_21test_output_functions
FN:60,_RNvNtNtCs92oXZPd7plo_16cargo_quickstart2ui6output7confirm
FNDA:141,_RNvNtNtCsj95mf2ixomG_16cargo_quickstart2ui6output4info
FNDA:7,_RNvNtNtCsj95mf2ixomG_16cargo_quickstart2ui6output5error
FNDA:5,_RNvNtNtCsj95mf2ixomG_16cargo_quickstart2ui6output6header
FNDA:40,_RNvNtNtCsj95mf2ixomG_16cargo_quickstart2ui6output7section
FNDA:14,_RNvNtNtCsj95mf2ixomG_16cargo_quickstart2ui6output7success
FNDA:29,_RNvNtNtCsj95mf2ixomG_16cargo_quickstart2ui6output7warning
FNDA:0,_RNvNtNtCsj95mf2ixomG_16cargo_quickstart2ui6output9key_value
FNDA:0,_RNvNtNtCsj95mf2ixomG_16cargo_quickstart2ui6output9list_item
FNDA:0,_RNvNtNtCsj95mf2ixomG_16cargo_quickstart2ui6output7confirm
FNDA:63,_RNvNtNtCs92oXZPd7plo_16cargo_quickstart2ui6output4info
FNDA:3,_RNvNtNtCs92oXZPd7plo_16cargo_quickstart2ui6output5error
FNDA:12,_RNvNtNtCs92oXZPd7plo_16cargo_quickstart2ui6output6header
FNDA:28,_RNvNtNtCs92oXZPd7plo_16cargo_quickstart2ui6output7section
FNDA:12,_RNvNtNtCs92oXZPd7plo_16cargo_quickstart2ui6output7success
FNDA:12,_RNvNtNtCs92oXZPd7plo_16cargo_quickstart2ui6output7warning
FNDA:43,_RNvNtNtCs92oXZPd7plo_16cargo_quickstart2ui6output9key_value
FNDA:53,_RNvNtNtCs92oXZPd7plo_16cargo_quickstart2ui6output9list_item
FNDA:1,_RNvNtNtNtCs92oXZPd7plo_16cargo_quickstart2ui6output5testss_21test_output_functions
FNDA:0,_RNvNtNtCs92oXZPd7plo_16cargo_quickstart2ui6output7confirm
FNF:10
FNH:9
DA:8,26
DA:9,26
DA:10,26
DA:11,26
DA:15,204
DA:16,204
DA:17,204
DA:18,204
DA:22,41
DA:23,41
DA:24,41
DA:25,41
DA:29,10
DA:30,10
DA:31,10
DA:32,10
DA:35,17
DA:36,17
DA:37,17
DA:38,17
DA:41,68
DA:42,68
DA:43,68
DA:44,68
DA:47,43
DA:48,43
DA:49,43
DA:50,43
DA:54,53
DA:55,53
DA:56,53
DA:60,0
DA:61,0
DA:62,0
DA:64,0
DA:65,0
DA:67,0
DA:68,0
DA:77,1
DA:79,1
DA:80,1
DA:81,1
DA:82,1
DA:83,1
DA:84,1
DA:85,1
DA:86,1
DA:90,1
BRF:0
BRH:0
LF:48
LH:41
end_of_record
SF:/Users/smeya/git/cargo-quickstart/crates/quickstart-cli/src/ui/progress.rs
FN:45,_RINvNtNtCsj95mf2ixomG_16cargo_quickstart2ui8progress12with_spinnerNCNvNtNtB6_8commands3new7execute0uNtCsipWU5uLanC_4eyre6ReportEB6_
FN:45,_RINvNtNtCsj95mf2ixomG_16cargo_quickstart2ui8progress12with_spinnerNCNvNtNtB6_8commands4init7execute0uNtCsipWU5uLanC_4eyre6ReportEB6_
FN:45,_RINvNtNtCsj95mf2ixomG_16cargo_quickstart2ui8progress12with_spinnerNCNvNtNtNtB6_8commands4init8executor7execute0uNtCsipWU5uLanC_4eyre6ReportEB6_
FN:14,_RNCNvNtNtCsj95mf2ixomG_16cargo_quickstart2ui8progress7spinner0B7_
FN:7,_RNvNtNtCsj95mf2ixomG_16cargo_quickstart2ui8progress7spinner
FN:30,_RNCNvNtNtCsj95mf2ixomG_16cargo_quickstart2ui8progress12progress_bar0B7_
FN:24,_RNvNtNtCsj95mf2ixomG_16cargo_quickstart2ui8progress12progress_bar
FN:40,_RNvNtNtCsj95mf2ixomG_16cargo_quickstart2ui8progress14multi_progress
FN:45,_RINvNtNtCs92oXZPd7plo_16cargo_quickstart2ui8progress12with_spinnerNCNvNtNtB6_8commands3new7execute0uNtCsipWU5uLanC_4eyre6ReportEB6_
FN:45,_RINvNtNtCs92oXZPd7plo_16cargo_quickstart2ui8progress12with_spinnerNCNvNtNtB6_8commands4init7execute0uNtCsipWU5uLanC_4eyre6ReportEB6_
FN:45,_RINvNtNtCs92oXZPd7plo_16cargo_quickstart2ui8progress12with_spinnerNCNvNtNtNtB6_8commands4init8executor7execute0uNtCsipWU5uLanC_4eyre6ReportEB6_
FN:14,_RNCNvNtNtCs92oXZPd7plo_16cargo_quickstart2ui8progress7spinner0B7_
FN:7,_RNvNtNtCs92oXZPd7plo_16cargo_quickstart2ui8progress7spinner
FN:30,_RNCNvNtNtCs92oXZPd7plo_16cargo_quickstart2ui8progress12progress_bar0B7_
FN:24,_RNvNtNtCs92oXZPd7plo_16cargo_quickstart2ui8progress12progress_bar
FN:40,_RNvNtNtCs92oXZPd7plo_16cargo_quickstart2ui8progress14multi_progress
FNDA:0,_RINvNtNtCsj95mf2ixomG_16cargo_quickstart2ui8progress12with_spinnerNCNvNtNtB6_8commands3new7execute0uNtCsipWU5uLanC_4eyre6ReportEB6_
FNDA:0,_RINvNtNtCsj95mf2ixomG_16cargo_quickstart2ui8progress12with_spinnerNCNvNtNtB6_8commands4init7execute0uNtCsipWU5uLanC_4eyre6ReportEB6_
FNDA:0,_RINvNtNtCsj95mf2ixomG_16cargo_quickstart2ui8progress12with_spinnerNCNvNtNtNtB6_8commands4init8executor7execute0uNtCsipWU5uLanC_4eyre6ReportEB6_
FNDA:0,_RNCNvNtNtCsj95mf2ixomG_16cargo_quickstart2ui8progress7spinner0B7_
FNDA:0,_RNvNtNtCsj95mf2ixomG_16cargo_quickstart2ui8progress7spinner
FNDA:0,_RNCNvNtNtCsj95mf2ixomG_16cargo_quickstart2ui8progress12progress_bar0B7_
FNDA:0,_RNvNtNtCsj95mf2ixomG_16cargo_quickstart2ui8progress12progress_bar
FNDA:0,_RNvNtNtCsj95mf2ixomG_16cargo_quickstart2ui8progress14multi_progress
FNDA:3,_RINvNtNtCs92oXZPd7plo_16cargo_quickstart2ui8progress12with_spinnerNCNvNtNtB6_8commands3new7execute0uNtCsipWU5uLanC_4eyre6ReportEB6_
FNDA:0,_RINvNtNtCs92oXZPd7plo_16cargo_quickstart2ui8progress12with_spinnerNCNvNtNtB6_8commands4init7execute0uNtCsipWU5uLanC_4eyre6ReportEB6_
FNDA:3,_RINvNtNtCs92oXZPd7plo_16cargo_quickstart2ui8progress12with_spinnerNCNvNtNtNtB6_8commands4init8executor7execute0uNtCsipWU5uLanC_4eyre6ReportEB6_
FNDA:0,_RNCNvNtNtCs92oXZPd7plo_16cargo_quickstart2ui8progress7spinner0B7_
FNDA:6,_RNvNtNtCs92oXZPd7plo_16cargo_quickstart2ui8progress7spinner
FNDA:0,_RNCNvNtNtCs92oXZPd7plo_16cargo_quickstart2ui8progress12progress_bar0B7_
FNDA:0,_RNvNtNtCs92oXZPd7plo_16cargo_quickstart2ui8progress12progress_bar
FNDA:0,_RNvNtNtCs92oXZPd7plo_16cargo_quickstart2ui8progress14multi_progress
FNF:6
FNH:2
DA:7,6
DA:8,6
DA:11,6
DA:12,6
DA:13,6
DA:14,6
DA:16,6
DA:17,6
DA:18,6
DA:19,6
DA:20,6
DA:24,0
DA:25,0
DA:28,0
DA:29,0
DA:30,0
DA:31,0
DA:33,0
DA:34,0
DA:35,0
DA:36,0
DA:40,0
DA:41,0
DA:42,0
DA:45,6
DA:46,6
DA:47,6
DA:49,6
DA:50,6
DA:52,6
DA:53,5
DA:54,5
DA:55,5
DA:56,1
DA:57,1
DA:58,1
DA:61,6
DA:62,6
BRF:0
BRH:0
LF:40
LH:25
end_of_record
SF:/Users/smeya/git/cargo-quickstart/crates/quickstart-cli/src/ui/prompts.rs
FN:148,_RNCNvNtNtCsj95mf2ixomG_16cargo_quickstart2ui7prompts6select0B7_
FN:54,_RNvNtNtCsj95mf2ixomG_16cargo_quickstart2ui7prompts18input_with_default
FN:129,_RNvNtNtCsj95mf2ixomG_16cargo_quickstart2ui7prompts6select
FN:104,_RNvNtNtCsj95mf2ixomG_16cargo_quickstart2ui7prompts7confirm
FN:193,_RNCNCNvNtNtCsj95mf2ixomG_16cargo_quickstart2ui7prompts12project_name00B9_
FN:199,_RNCNCNvNtNtCsj95mf2ixomG_16cargo_quickstart2ui7prompts12project_name0s_0B9_
FN:187,_RNCNvNtNtCsj95mf2ixomG_16cargo_quickstart2ui7prompts12project_name0B7_
FN:160,_RNvNtNtCsj95mf2ixomG_16cargo_quickstart2ui7prompts12project_name
FN:80,_RNvNtNtCsj95mf2ixomG_16cargo_quickstart2ui7prompts14input_required
FN:193,_RNCNCNvNtNtCs92oXZPd7plo_16cargo_quickstart2ui7prompts12project_names0_00B9_
FN:199,_RNCNCNvNtNtCs92oXZPd7plo_16cargo_quickstart2ui7prompts12project_names0_0s_0B9_
FN:15,_RNCNvNtNtCs92oXZPd7plo_16cargo_quickstart2ui7prompts10MOCK_INPUT0B7_
FN:19,_RNCNvNtNtCs92oXZPd7plo_16cargo_quickstart2ui7prompts11MOCK_SELECT0B7_
FN:17,_RNCNvNtNtCs92oXZPd7plo_16cargo_quickstart2ui7prompts12MOCK_CONFIRM0B7_
FN:13,_RNCNvNtNtCs92oXZPd7plo_16cargo_quickstart2ui7prompts12MOCK_ENABLED0B7_
FN:171,_RNCNvNtNtCs92oXZPd7plo_16cargo_quickstart2ui7prompts12project_name0B7_
FN:187,_RNCNvNtNtCs92oXZPd7plo_16cargo_quickstart2ui7prompts12project_names0_0B7_
FN:177,_RNCNvNtNtCs92oXZPd7plo_16cargo_quickstart2ui7prompts12project_names_0B7_
FN:148,_RNCNvNtNtCs92oXZPd7plo_16cargo_quickstart2ui7prompts6select0B7_
FN:160,_RNvNtNtCs92oXZPd7plo_16cargo_quickstart2ui7prompts12project_name
FN:23,_RNvNtNtCs92oXZPd7plo_16cargo_quickstart2ui7prompts14enable_mocking
FN:80,_RNvNtNtCs92oXZPd7plo_16cargo_quickstart2ui7prompts14input_required
FN:33,_RNvNtNtCs92oXZPd7plo_16cargo_quickstart2ui7prompts14set_mock_input
FN:28,_RNvNtNtCs92oXZPd7plo_16cargo_quickstart2ui7prompts15disable_mocking
FN:47,_RNvNtNtCs92oXZPd7plo_16cargo_quickstart2ui7prompts15set_mock_select
FN:40,_RNvNtNtCs92oXZPd7plo_16cargo_quickstart2ui7prompts16set_mock_confirm
FN:54,_RNvNtNtCs92oXZPd7plo_16cargo_quickstart2ui7prompts18input_with_default
FN:129,_RNvNtNtCs92oXZPd7plo_16cargo_quickstart2ui7prompts6select
FN:104,_RNvNtNtCs92oXZPd7plo_16cargo_quickstart2ui7prompts7confirm
FN:232,_RNvMNtNtNtCs92oXZPd7plo_16cargo_quickstart2ui7prompts5testsNtB2_9MockGuard3new
FN:278,_RNvNtNtNtCs92oXZPd7plo_16cargo_quickstart2ui7prompts5testss_18test_select_mocked
FN:267,_RNvNtNtNtCs92oXZPd7plo_16cargo_quickstart2ui7prompts5testss_19test_confirm_mocked
FN:256,_RNvNtNtNtCs92oXZPd7plo_16cargo_quickstart2ui7prompts5testss_26test_input_required_mocked
FN:289,_RNvNtNtNtCs92oXZPd7plo_16cargo_quickstart2ui7prompts5testss_28test_project_name_validation
FN:245,_RNvNtNtNtCs92oXZPd7plo_16cargo_quickstart2ui7prompts5testss_30test_input_with_default_mocked
FN:239,_RNvXs_NtNtNtCs92oXZPd7plo_16cargo_quickstart2ui7prompts5testsNtB4_9MockGuardNtNtNtCs6FgkbHSHiEg_4core3ops4drop4Drop4drop
FNDA:0,_RNCNvNtNtCsj95mf2ixomG_16cargo_quickstart2ui7prompts6select0B7_
FNDA:0,_RNvNtNtCsj95mf2ixomG_16cargo_quickstart2ui7prompts18input_with_default
FNDA:0,_RNvNtNtCsj95mf2ixomG_16cargo_quickstart2ui7prompts6select
FNDA:0,_RNvNtNtCsj95mf2ixomG_16cargo_quickstart2ui7prompts7confirm
FNDA:0,_RNCNCNvNtNtCsj95mf2ixomG_16cargo_quickstart2ui7prompts12project_name00B9_
FNDA:0,_RNCNCNvNtNtCsj95mf2ixomG_16cargo_quickstart2ui7prompts12project_name0s_0B9_
FNDA:0,_RNCNvNtNtCsj95mf2ixomG_16cargo_quickstart2ui7prompts12project_name0B7_
FNDA:0,_RNvNtNtCsj95mf2ixomG_16cargo_quickstart2ui7prompts12project_name
FNDA:0,_RNvNtNtCsj95mf2ixomG_16cargo_quickstart2ui7prompts14input_required
FNDA:0,_RNCNCNvNtNtCs92oXZPd7plo_16cargo_quickstart2ui7prompts12project_names0_00B9_
FNDA:0,_RNCNCNvNtNtCs92oXZPd7plo_16cargo_quickstart2ui7prompts12project_names0_0s_0B9_
FNDA:4,_RNCNvNtNtCs92oXZPd7plo_16cargo_quickstart2ui7prompts10MOCK_INPUT0B7_
FNDA:3,_RNCNvNtNtCs92oXZPd7plo_16cargo_quickstart2ui7prompts11MOCK_SELECT0B7_
FNDA:4,_RNCNvNtNtCs92oXZPd7plo_16cargo_quickstart2ui7prompts12MOCK_CONFIRM0B7_
FNDA:11,_RNCNvNtNtCs92oXZPd7plo_16cargo_quickstart2ui7prompts12MOCK_ENABLED0B7_
FNDA:29,_RNCNvNtNtCs92oXZPd7plo_16cargo_quickstart2ui7prompts12project_name0B7_
FNDA:0,_RNCNvNtNtCs92oXZPd7plo_16cargo_quickstart2ui7prompts12project_names0_0B7_
FNDA:2,_RNCNvNtNtCs92oXZPd7plo_16cargo_quickstart2ui7prompts12project_names_0B7_
FNDA:0,_RNCNvNtNtCs92oXZPd7plo_16cargo_quickstart2ui7prompts6select0B7_
FNDA:4,_RNvNtNtCs92oXZPd7plo_16cargo_quickstart2ui7prompts12project_name
FNDA:11,_RNvNtNtCs92oXZPd7plo_16cargo_quickstart2ui7prompts14enable_mocking
FNDA:1,_RNvNtNtCs92oXZPd7plo_16cargo_quickstart2ui7prompts14input_required
FNDA:7,_RNvNtNtCs92oXZPd7plo_16cargo_quickstart2ui7prompts14set_mock_input
FNDA:11,_RNvNtNtCs92oXZPd7plo_16cargo_quickstart2ui7prompts15disable_mocking
FNDA:3,_RNvNtNtCs92oXZPd7plo_16cargo_quickstart2ui7prompts15set_mock_select
FNDA:4,_RNvNtNtCs92oXZPd7plo_16cargo_quickstart2ui7prompts16set_mock_confirm
FNDA:2,_RNvNtNtCs92oXZPd7plo_16cargo_quickstart2ui7prompts18input_with_default
FNDA:3,_RNvNtNtCs92oXZPd7plo_16cargo_quickstart2ui7prompts6select
FNDA:3,_RNvNtNtCs92oXZPd7plo_16cargo_quickstart2ui7prompts7confirm
FNDA:5,_RNvMNtNtNtCs92oXZPd7plo_16cargo_quickstart2ui7prompts5testsNtB2_9MockGuard3new
FNDA:1,_RNvNtNtNtCs92oXZPd7plo_16cargo_quickstart2ui7prompts5testss_18test_select_mocked
FNDA:1,_RNvNtNtNtCs92oXZPd7plo_16cargo_quickstart2ui7prompts5testss_19test_confirm_mocked
FNDA:1,_RNvNtNtNtCs92oXZPd7plo_16cargo_quickstart2ui7prompts5testss_26test_input_required_mocked
FNDA:1,_RNvNtNtNtCs92oXZPd7plo_16cargo_quickstart2ui7prompts5testss_28test_project_name_validation
FNDA:1,_RNvNtNtNtCs92oXZPd7plo_16cargo_quickstart2ui7prompts5testss_30test_input_with_default_mocked
FNDA:5,_RNvXs_NtNtNtCs92oXZPd7plo_16cargo_quickstart2ui7prompts5testsNtB4_9MockGuardNtNtNtCs6FgkbHSHiEg_4core3ops4drop4Drop4drop
FNF:27
FNH:23
DA:13,11
DA:15,4
DA:17,4
DA:19,3
DA:23,11
DA:24,11
DA:25,11
DA:28,11
DA:29,11
DA:30,11
DA:33,7
DA:34,7
DA:35,7
DA:36,7
DA:37,7
DA:40,4
DA:41,4
DA:42,4
DA:43,4
DA:44,4
DA:47,3
DA:48,3
DA:49,3
DA:50,3
DA:51,3
DA:54,2
DA:57,2
DA:58,2
DA:59,2
DA:60,2
DA:61,0
DA:62,0
DA:63,0
DA:66,0
DA:67,0
DA:68,0
DA:69,0
DA:71,0
DA:72,0
DA:73,0
DA:74,0
DA:76,2
DA:80,1
DA:83,1
DA:84,1
DA:85,1
DA:86,1
DA:87,0
DA:88,0
DA:89,0
DA:92,0
DA:93,0
DA:94,0
DA:96,0
DA:97,0
DA:98,0
DA:99,0
DA:101,1
DA:104,3
DA:107,3
DA:108,3
DA:109,3
DA:110,3
DA:111,0
DA:112,0
DA:113,0
DA:116,0
DA:117,0
DA:118,0
DA:119,0
DA:121,0
DA:122,0
DA:123,0
DA:124,0
DA:126,3
DA:129,3
DA:132,3
DA:133,3
DA:134,3
DA:135,3
DA:136,0
DA:137,0
DA:138,0
DA:141,0
DA:142,0
DA:143,0
DA:145,0
DA:146,0
DA:148,0
DA:149,0
DA:150,0
DA:153,0
DA:154,0
DA:156,3
DA:160,4
DA:163,4
DA:164,4
DA:165,4
DA:167,4
DA:168,1
DA:169,3
DA:171,29
DA:172,1
DA:173,1
DA:174,1
DA:175,2
DA:177,2
DA:178,1
DA:179,1
DA:181,1
DA:182,0
DA:183,0
DA:184,0
DA:187,0
DA:189,0
DA:190,0
DA:191,0
DA:193,0
DA:194,0
DA:195,0
DA:196,0
DA:197,0
DA:199,0
DA:200,0
DA:201,0
DA:202,0
DA:203,0
DA:205,0
DA:206,0
DA:208,0
DA:209,0
DA:210,0
DA:211,0
DA:213,0
DA:215,0
DA:216,0
DA:217,0
DA:218,0
DA:220,4
DA:232,5
DA:233,5
DA:234,5
DA:235,5
DA:239,5
DA:240,5
DA:241,5
DA:245,1
DA:246,1
DA:247,1
DA:249,1
DA:250,1
DA:252,1
DA:253,1
DA:256,1
DA:257,1
DA:258,1
DA:260,1
DA:261,1
DA:263,1
DA:264,1
DA:267,1
DA:268,1
DA:269,1
DA:271,1
DA:272,1
DA:274,1
DA:275,1
DA:278,1
DA:279,1
DA:280,1
DA:282,1
DA:283,1
DA:285,1
DA:286,1
DA:289,1
DA:290,1
DA:293,1
DA:294,1
DA:295,1
DA:298,1
DA:299,1
DA:300,1
DA:303,1
DA:304,1
DA:305,1
DA:308,1
DA:309,1
DA:310,1
DA:312,1
DA:313,1
BRF:0
BRH:0
LF:196
LH:119
end_of_record
SF:/Users/smeya/git/cargo-quickstart/crates/quickstart-lib/src/lib.rs
FN:103,_RNCNvCsa7f5bF4HDC3_14quickstart_lib16generate_project0B3_
FN:67,_RNvCsa7f5bF4HDC3_14quickstart_lib16generate_project
FN:49,_RNvCsa7f5bF4HDC3_14quickstart_lib18find_templates_dir
FN:21,_RNvXCsa7f5bF4HDC3_14quickstart_libNtB2_11ProjectTypeNtNtCs6FgkbHSHiEg_4core3fmt7Display3fmt
FN:103,_RNCNvCs6XP26u6y9PQ_14quickstart_lib16generate_project0B3_
FN:67,_RNvCs6XP26u6y9PQ_14quickstart_lib16generate_project
FN:49,_RNvCs6XP26u6y9PQ_14quickstart_lib18find_templates_dir
FN:21,_RNvXCs6XP26u6y9PQ_14quickstart_libNtB2_11ProjectTypeNtNtCs6FgkbHSHiEg_4core3fmt7Display3fmt
FN:154,_RNvNtCs6XP26u6y9PQ_14quickstart_lib5testss_25test_project_type_display
FN:160,_RNvNtCs6XP26u6y9PQ_14quickstart_lib5testss_29test_find_templates_dir_error
FN:193,_RNvNtCs6XP26u6y9PQ_14quickstart_lib5testss_30test_project_config_edge_cases
FN:177,_RNvNtCs6XP26u6y9PQ_14quickstart_lib5testss_32test_config_struct_instantiation
FN:244,_RNvNtCs6XP26u6y9PQ_14quickstart_lib5testss_33test_generate_project_write_error
FN:215,_RNvNtCs6XP26u6y9PQ_14quickstart_lib5testss_36test_generate_project_template_error
FNDA:0,_RNCNvCsa7f5bF4HDC3_14quickstart_lib16generate_project0B3_
FNDA:6,_RNvCsa7f5bF4HDC3_14quickstart_lib16generate_project
FNDA:6,_RNvCsa7f5bF4HDC3_14quickstart_lib18find_templates_dir
FNDA:10,_RNvXCsa7f5bF4HDC3_14quickstart_libNtB2_11ProjectTypeNtNtCs6FgkbHSHiEg_4core3fmt7Display3fmt
FNDA:0,_RNCNvCs6XP26u6y9PQ_14quickstart_lib16generate_project0B3_
FNDA:1,_RNvCs6XP26u6y9PQ_14quickstart_lib16generate_project
FNDA:2,_RNvCs6XP26u6y9PQ_14quickstart_lib18find_templates_dir
FNDA:2,_RNvXCs6XP26u6y9PQ_14quickstart_libNtB2_11ProjectTypeNtNtCs6FgkbHSHiEg_4core3fmt7Display3fmt
FNDA:1,_RNvNtCs6XP26u6y9PQ_14quickstart_lib5testss_25test_project_type_display
FNDA:1,_RNvNtCs6XP26u6y9PQ_14quickstart_lib5testss_29test_find_templates_dir_error
FNDA:1,_RNvNtCs6XP26u6y9PQ_14quickstart_lib5testss_30test_project_config_edge_cases
FNDA:1,_RNvNtCs6XP26u6y9PQ_14quickstart_lib5testss_32test_config_struct_instantiation
FNDA:1,_RNvNtCs6XP26u6y9PQ_14quickstart_lib5testss_33test_generate_project_write_error
FNDA:1,_RNvNtCs6XP26u6y9PQ_14quickstart_lib5testss_36test_generate_project_template_error
FNF:10
FNH:9
DA:21,12
DA:22,12
DA:23,10
DA:24,2
DA:26,12
DA:49,8
DA:50,8
DA:52,19
DA:53,19
DA:54,7
DA:55,12
DA:56,12
DA:57,1
DA:58,11
DA:60,1
DA:61,1
DA:62,1
DA:63,1
DA:64,8
DA:67,7
DA:71,7
DA:72,7
DA:73,1
DA:74,1
DA:75,1
DA:76,1
DA:77,6
DA:78,0
DA:81,6
DA:84,6
DA:87,6
DA:88,6
DA:91,6
DA:94,6
DA:97,6
DA:100,26
DA:102,21
DA:103,21
DA:104,21
DA:107,21
DA:110,21
DA:113,21
DA:116,21
DA:117,21
DA:118,0
DA:121,21
DA:125,5
DA:126,0
DA:127,5
DA:129,5
DA:130,5
DA:131,7
DA:154,1
DA:155,1
DA:156,1
DA:157,1
DA:160,1
DA:162,1
DA:163,0
DA:164,0
DA:165,1
DA:168,1
DA:169,1
DA:170,1
DA:171,1
DA:172,1
DA:173,1
DA:174,1
DA:177,1
DA:178,1
DA:179,1
DA:180,1
DA:181,1
DA:182,1
DA:183,1
DA:184,1
DA:185,1
DA:186,1
DA:187,1
DA:188,1
DA:189,1
DA:190,1
DA:193,1
DA:194,1
DA:195,1
DA:196,1
DA:197,1
DA:198,1
DA:199,1
DA:200,1
DA:201,1
DA:202,1
DA:203,1
DA:204,1
DA:205,1
DA:206,0
DA:208,1
DA:209,1
DA:210,1
DA:211,1
DA:212,1
DA:215,1
DA:218,1
DA:221,1
DA:222,1
DA:225,1
DA:226,1
DA:227,1
DA:228,1
DA:231,1
DA:234,1
DA:235,1
DA:236,1
DA:237,1
DA:238,0
DA:240,0
DA:241,1
DA:244,1
DA:246,1
DA:247,0
DA:248,0
DA:249,1
DA:252,1
DA:253,1
DA:256,1
DA:257,1
DA:269,1
DA:270,1
DA:271,1
DA:272,1
DA:273,1
DA:274,1
DA:275,1
DA:276,1
DA:279,1
DA:280,1
DA:281,1
DA:282,1
DA:283,1
DA:286,1
DA:287,1
DA:290,1
DA:292,1
DA:293,1
DA:296,1
DA:298,1
DA:299,1
DA:302,1
DA:304,1
DA:305,1
DA:308,1
DA:310,1
DA:311,1
DA:314,1
DA:317,1
DA:318,1
DA:321,1
DA:322,1
DA:323,1
DA:324,1
DA:325,1
DA:326,1
DA:327,1
DA:328,1
DA:329,1
DA:332,1
DA:335,1
DA:338,1
DA:341,1
DA:342,1
DA:343,1
DA:344,1
DA:345,1
DA:346,1
DA:347,1
DA:348,0
DA:350,0
DA:351,1
BRF:0
BRH:0
LF:179
LH:166
end_of_record
SF:/Users/smeya/git/cargo-quickstart/crates/quickstart-lib/src/template/engine.rs
FN:64,_RNCNvMNtNtCsa7f5bF4HDC3_14quickstart_lib8template6engineNtB4_14TemplateEngine15render_template0B8_
FN:44,_RNCNvMNtNtCsa7f5bF4HDC3_14quickstart_lib8template6engineNtB4_14TemplateEngine17register_template0B8_
FN:54,_RNCNvMNtNtCsa7f5bF4HDC3_14quickstart_lib8template6engineNtB4_14TemplateEngine6render0B8_
FN:60,_RNvMNtNtCsa7f5bF4HDC3_14quickstart_lib8template6engineNtB2_14TemplateEngine15render_template
FN:40,_RNvMNtNtCsa7f5bF4HDC3_14quickstart_lib8template6engineNtB2_14TemplateEngine17register_template
FN:21,_RNvMNtNtCsa7f5bF4HDC3_14quickstart_lib8template6engineNtB2_14TemplateEngine3new
FN:50,_RNvMNtNtCsa7f5bF4HDC3_14quickstart_lib8template6engineNtB2_14TemplateEngine6render
FN:75,_RNvMNtNtCsa7f5bF4HDC3_14quickstart_lib8template6engineNtB2_14TemplateEngine13variables_mut
FN:70,_RNvMNtNtCsa7f5bF4HDC3_14quickstart_lib8template6engineNtB2_14TemplateEngine9variables
FN:64,_RNCNvMNtNtCs6XP26u6y9PQ_14quickstart_lib8template6engineNtB4_14TemplateEngine15render_template0B8_
FN:44,_RNCNvMNtNtCs6XP26u6y9PQ_14quickstart_lib8template6engineNtB4_14TemplateEngine17register_template0B8_
FN:54,_RNCNvMNtNtCs6XP26u6y9PQ_14quickstart_lib8template6engineNtB4_14TemplateEngine6render0B8_
FN:75,_RNvMNtNtCs6XP26u6y9PQ_14quickstart_lib8template6engineNtB2_14TemplateEngine13variables_mut
FN:60,_RNvMNtNtCs6XP26u6y9PQ_14quickstart_lib8template6engineNtB2_14TemplateEngine15render_template
FN:40,_RNvMNtNtCs6XP26u6y9PQ_14quickstart_lib8template6engineNtB2_14TemplateEngine17register_template
FN:21,_RNvMNtNtCs6XP26u6y9PQ_14quickstart_lib8template6engineNtB2_14TemplateEngine3new
FN:50,_RNvMNtNtCs6XP26u6y9PQ_14quickstart_lib8template6engineNtB2_14TemplateEngine6render
FN:70,_RNvMNtNtCs6XP26u6y9PQ_14quickstart_lib8template6engineNtB2_14TemplateEngine9variables
FN:87,_RNvNtNtNtCs6XP26u6y9PQ_14quickstart_lib8template6engine5testss_20test_render_template
FN:153,_RNvNtNtNtCs6XP26u6y9PQ_14quickstart_lib8template6engine5testss_24test_variables_accessors
FN:100,_RNvNtNtNtCs6XP26u6y9PQ_14quickstart_lib8template6engine5testss_25test_conditional_sections
FN:114,_RNvNtNtNtCs6XP26u6y9PQ_14quickstart_lib8template6engine5testss_28test_project_type_conditions
FN:135,_RNvNtNtNtCs6XP26u6y9PQ_14quickstart_lib8template6engine5testss_33test_render_unregistered_template
FN:144,_RNvNtNtNtCs6XP26u6y9PQ_14quickstart_lib8template6engine5testss_36test_render_template_invalid_content
FN:126,_RNvNtNtNtCs6XP26u6y9PQ_14quickstart_lib8template6engine5testss_37test_register_template_invalid_syntax
FNDA:0,_RNCNvMNtNtCsa7f5bF4HDC3_14quickstart_lib8template6engineNtB4_14TemplateEngine15render_template0B8_
FNDA:0,_RNCNvMNtNtCsa7f5bF4HDC3_14quickstart_lib8template6engineNtB4_14TemplateEngine17register_template0B8_
FNDA:0,_RNCNvMNtNtCsa7f5bF4HDC3_14quickstart_lib8template6engineNtB4_14TemplateEngine6render0B8_
FNDA:21,_RNvMNtNtCsa7f5bF4HDC3_14quickstart_lib8template6engineNtB2_14TemplateEngine15render_template
FNDA:0,_RNvMNtNtCsa7f5bF4HDC3_14quickstart_lib8template6engineNtB2_14TemplateEngine17register_template
FNDA:5,_RNvMNtNtCsa7f5bF4HDC3_14quickstart_lib8template6engineNtB2_14TemplateEngine3new
FNDA:0,_RNvMNtNtCsa7f5bF4HDC3_14quickstart_lib8template6engineNtB2_14TemplateEngine6render
FNDA:0,_RNvMNtNtCsa7f5bF4HDC3_14quickstart_lib8template6engineNtB2_14TemplateEngine13variables_mut
FNDA:0,_RNvMNtNtCsa7f5bF4HDC3_14quickstart_lib8template6engineNtB2_14TemplateEngine9variables
FNDA:1,_RNCNvMNtNtCs6XP26u6y9PQ_14quickstart_lib8template6engineNtB4_14TemplateEngine15render_template0B8_
FNDA:1,_RNCNvMNtNtCs6XP26u6y9PQ_14quickstart_lib8template6engineNtB4_14TemplateEngine17register_template0B8_
FNDA:1,_RNCNvMNtNtCs6XP26u6y9PQ_14quickstart_lib8template6engineNtB4_14TemplateEngine6render0B8_
FNDA:1,_RNvMNtNtCs6XP26u6y9PQ_14quickstart_lib8template6engineNtB2_14TemplateEngine13variables_mut
FNDA:4,_RNvMNtNtCs6XP26u6y9PQ_14quickstart_lib8template6engineNtB2_14TemplateEngine15render_template
FNDA:1,_RNvMNtNtCs6XP26u6y9PQ_14quickstart_lib8template6engineNtB2_14TemplateEngine17register_template
FNDA:8,_RNvMNtNtCs6XP26u6y9PQ_14quickstart_lib8template6engineNtB2_14TemplateEngine3new
FNDA:1,_RNvMNtNtCs6XP26u6y9PQ_14quickstart_lib8template6engineNtB2_14TemplateEngine6render
FNDA:2,_RNvMNtNtCs6XP26u6y9PQ_14quickstart_lib8template6engineNtB2_14TemplateEngine9variables
FNDA:1,_RNvNtNtNtCs6XP26u6y9PQ_14quickstart_lib8template6engine5testss_20test_render_template
FNDA:1,_RNvNtNtNtCs6XP26u6y9PQ_14quickstart_lib8template6engine5testss_24test_variables_accessors
FNDA:1,_RNvNtNtNtCs6XP26u6y9PQ_14quickstart_lib8template6engine5testss_25test_conditional_sections
FNDA:1,_RNvNtNtNtCs6XP26u6y9PQ_14quickstart_lib8template6engine5testss_28test_project_type_conditions
FNDA:1,_RNvNtNtNtCs6XP26u6y9PQ_14quickstart_lib8template6engine5testss_33test_render_unregistered_template
FNDA:1,_RNvNtNtNtCs6XP26u6y9PQ_14quickstart_lib8template6engine5testss_36test_render_template_invalid_content
FNDA:1,_RNvNtNtNtCs6XP26u6y9PQ_14quickstart_lib8template6engine5testss_37test_register_template_invalid_syntax
FNF:16
FNH:16
DA:21,13
DA:22,13
DA:25,13
DA:28,13
DA:29,13
DA:30,13
DA:31,13
DA:33,13
DA:34,13
DA:35,13
DA:36,13
DA:37,13
DA:40,1
DA:41,1
DA:42,1
DA:43,1
DA:44,1
DA:45,1
DA:46,1
DA:47,1
DA:50,1
DA:51,1
DA:52,1
DA:53,1
DA:54,1
DA:55,1
DA:56,1
DA:57,1
DA:60,25
DA:61,25
DA:62,25
DA:63,25
DA:64,1
DA:65,1
DA:66,1
DA:67,25
DA:70,2
DA:71,2
DA:72,2
DA:75,1
DA:76,1
DA:77,1
DA:87,1
DA:88,1
DA:89,1
DA:91,1
DA:92,1
DA:93,1
DA:95,1
DA:96,1
DA:97,1
DA:100,1
DA:101,1
DA:102,1
DA:104,1
DA:106,1
DA:107,1
DA:109,1
DA:110,1
DA:111,1
DA:114,1
DA:115,1
DA:116,1
DA:118,1
DA:119,1
DA:121,1
DA:122,1
DA:123,1
DA:126,1
DA:127,1
DA:128,1
DA:130,1
DA:131,1
DA:132,1
DA:135,1
DA:136,1
DA:137,1
DA:139,1
DA:140,1
DA:141,1
DA:144,1
DA:145,1
DA:146,1
DA:148,1
DA:149,1
DA:150,1
DA:153,1
DA:154,1
DA:155,1
DA:156,1
DA:157,1
DA:158,1
DA:159,1
BRF:0
BRH:0
LF:93
LH:93
end_of_record
SF:/Users/smeya/git/cargo-quickstart/crates/quickstart-lib/src/template/loader.rs
FN:21,_RINvMNtNtCsa7f5bF4HDC3_14quickstart_lib8template6loaderNtB3_14TemplateLoader3newNtNtCsk7vxJ71mTpZ_3std4path7PathBufECsj95mf2ixomG_16cargo_quickstart
FN:21,_RINvMNtNtCsa7f5bF4HDC3_14quickstart_lib8template6loaderNtB3_14TemplateLoader3newNtNtCsk7vxJ71mTpZ_3std4path7PathBufEB7_
FN:31,_RNCNvMNtNtCsa7f5bF4HDC3_14quickstart_lib8template6loaderNtB4_14TemplateLoader13load_template0B8_
FN:138,_RNCNvMNtNtCsa7f5bF4HDC3_14quickstart_lib8template6loaderNtB4_14TemplateLoader20get_destination_path0B8_
FN:107,_RNCNvMNtNtCsa7f5bF4HDC3_14quickstart_lib8template6loaderNtB4_14TemplateLoader26collect_templates_from_dir0B8_
FN:111,_RNCNvMNtNtCsa7f5bF4HDC3_14quickstart_lib8template6loaderNtB4_14TemplateLoader26collect_templates_from_dirs_0B8_
FN:28,_RNvMNtNtCsa7f5bF4HDC3_14quickstart_lib8template6loaderNtB2_14TemplateLoader13load_template
FN:43,_RNvMNtNtCsa7f5bF4HDC3_14quickstart_lib8template6loaderNtB2_14TemplateLoader14list_templates
FN:37,_RNvMNtNtCsa7f5bF4HDC3_14quickstart_lib8template6loaderNtB2_14TemplateLoader15template_exists
FN:135,_RNvMNtNtCsa7f5bF4HDC3_14quickstart_lib8template6loaderNtB2_14TemplateLoader20get_destination_path
FN:97,_RNvMNtNtCsa7f5bF4HDC3_14quickstart_lib8template6loaderNtB2_14TemplateLoader26collect_templates_from_dir
FN:178,_RNvMNtNtCsa7f5bF4HDC3_14quickstart_lib8template6loaderNtB2_14TemplateLoader9base_path
FN:21,_RINvMNtNtCsa7f5bF4HDC3_14quickstart_lib8template6loaderNtB3_14TemplateLoader3newNtNtCsk7vxJ71mTpZ_3std4path7PathBufECs92oXZPd7plo_16cargo_quickstart
FN:21,_RINvMNtNtCsa7f5bF4HDC3_14quickstart_lib8template6loaderNtB3_14TemplateLoader3newRNtNtCsk7vxJ71mTpZ_3std4path4PathECs92oXZPd7plo_16cargo_quickstart
FN:21,_RINvMNtNtCs6XP26u6y9PQ_14quickstart_lib8template6loaderNtB3_14TemplateLoader3newNtNtCsk7vxJ71mTpZ_3std4path7PathBufEB7_
FN:21,_RINvMNtNtCs6XP26u6y9PQ_14quickstart_lib8template6loaderNtB3_14TemplateLoader3newRNtNtCsk7vxJ71mTpZ_3std4path4PathEB7_
FN:31,_RNCNvMNtNtCs6XP26u6y9PQ_14quickstart_lib8template6loaderNtB4_14TemplateLoader13load_template0B8_
FN:138,_RNCNvMNtNtCs6XP26u6y9PQ_14quickstart_lib8template6loaderNtB4_14TemplateLoader20get_destination_path0B8_
FN:107,_RNCNvMNtNtCs6XP26u6y9PQ_14quickstart_lib8template6loaderNtB4_14TemplateLoader26collect_templates_from_dir0B8_
FN:111,_RNCNvMNtNtCs6XP26u6y9PQ_14quickstart_lib8template6loaderNtB4_14TemplateLoader26collect_templates_from_dirs_0B8_
FN:28,_RNvMNtNtCs6XP26u6y9PQ_14quickstart_lib8template6loaderNtB2_14TemplateLoader13load_template
FN:43,_RNvMNtNtCs6XP26u6y9PQ_14quickstart_lib8template6loaderNtB2_14TemplateLoader14list_templates
FN:37,_RNvMNtNtCs6XP26u6y9PQ_14quickstart_lib8template6loaderNtB2_14TemplateLoader15template_exists
FN:135,_RNvMNtNtCs6XP26u6y9PQ_14quickstart_lib8template6loaderNtB2_14TemplateLoader20get_destination_path
FN:97,_RNvMNtNtCs6XP26u6y9PQ_14quickstart_lib8template6loaderNtB2_14TemplateLoader26collect_templates_from_dir
FN:178,_RNvMNtNtCs6XP26u6y9PQ_14quickstart_lib8template6loaderNtB2_14TemplateLoader9base_path
FN:283,_RNCNvNtNtNtCs6XP26u6y9PQ_14quickstart_lib8template6loader5testss_19test_list_templates0B9_
FN:286,_RNCNvNtNtNtCs6XP26u6y9PQ_14quickstart_lib8template6loader5testss_19test_list_templatess_0B9_
FN:189,_RNvNtNtNtCs6XP26u6y9PQ_14quickstart_lib8template6loader5tests24create_test_template_dir
FN:233,_RNvNtNtNtCs6XP26u6y9PQ_14quickstart_lib8template6loader5testss_18test_load_template
FN:263,_RNvNtNtNtCs6XP26u6y9PQ_14quickstart_lib8template6loader5testss_19test_list_templates
FN:248,_RNvNtNtNtCs6XP26u6y9PQ_14quickstart_lib8template6loader5testss_20test_template_exists
FN:293,_RNvNtNtNtCs6XP26u6y9PQ_14quickstart_lib8template6loader5testss_25test_get_destination_path
FNDA:0,_RINvMNtNtCsa7f5bF4HDC3_14quickstart_lib8template6loaderNtB3_14TemplateLoader3newNtNtCsk7vxJ71mTpZ_3std4path7PathBufECsj95mf2ixomG_16cargo_quickstart
FNDA:5,_RINvMNtNtCsa7f5bF4HDC3_14quickstart_lib8template6loaderNtB3_14TemplateLoader3newNtNtCsk7vxJ71mTpZ_3std4path7PathBufEB7_
FNDA:0,_RNCNvMNtNtCsa7f5bF4HDC3_14quickstart_lib8template6loaderNtB4_14TemplateLoader13load_template0B8_
FNDA:0,_RNCNvMNtNtCsa7f5bF4HDC3_14quickstart_lib8template6loaderNtB4_14TemplateLoader20get_destination_path0B8_
FNDA:0,_RNCNvMNtNtCsa7f5bF4HDC3_14quickstart_lib8template6loaderNtB4_14TemplateLoader26collect_templates_from_dir0B8_
FNDA:0,_RNCNvMNtNtCsa7f5bF4HDC3_14quickstart_lib8template6loaderNtB4_14TemplateLoader26collect_templates_from_dirs_0B8_
FNDA:21,_RNvMNtNtCsa7f5bF4HDC3_14quickstart_lib8template6loaderNtB2_14TemplateLoader13load_template
FNDA:17,_RNvMNtNtCsa7f5bF4HDC3_14quickstart_lib8template6loaderNtB2_14TemplateLoader14list_templates
FNDA:0,_RNvMNtNtCsa7f5bF4HDC3_14quickstart_lib8template6loaderNtB2_14TemplateLoader15template_exists
FNDA:21,_RNvMNtNtCsa7f5bF4HDC3_14quickstart_lib8template6loaderNtB2_14TemplateLoader20get_destination_path
FNDA:38,_RNvMNtNtCsa7f5bF4HDC3_14quickstart_lib8template6loaderNtB2_14TemplateLoader26collect_templates_from_dir
FNDA:74,_RNvMNtNtCsa7f5bF4HDC3_14quickstart_lib8template6loaderNtB2_14TemplateLoader9base_path
FNDA:1,_RINvMNtNtCsa7f5bF4HDC3_14quickstart_lib8template6loaderNtB3_14TemplateLoader3newNtNtCsk7vxJ71mTpZ_3std4path7PathBufECs92oXZPd7plo_16cargo_quickstart
FNDA:2,_RINvMNtNtCsa7f5bF4HDC3_14quickstart_lib8template6loaderNtB3_14TemplateLoader3newRNtNtCsk7vxJ71mTpZ_3std4path4PathECs92oXZPd7plo_16cargo_quickstart
FNDA:1,_RINvMNtNtCs6XP26u6y9PQ_14quickstart_lib8template6loaderNtB3_14TemplateLoader3newNtNtCsk7vxJ71mTpZ_3std4path7PathBufEB7_
FNDA:4,_RINvMNtNtCs6XP26u6y9PQ_14quickstart_lib8template6loaderNtB3_14TemplateLoader3newRNtNtCsk7vxJ71mTpZ_3std4path4PathEB7_
FNDA:0,_RNCNvMNtNtCs6XP26u6y9PQ_14quickstart_lib8template6loaderNtB4_14TemplateLoader13load_template0B8_
FNDA:0,_RNCNvMNtNtCs6XP26u6y9PQ_14quickstart_lib8template6loaderNtB4_14TemplateLoader20get_destination_path0B8_
FNDA:0,_RNCNvMNtNtCs6XP26u6y9PQ_14quickstart_lib8template6loaderNtB4_14TemplateLoader26collect_templates_from_dir0B8_
FNDA:0,_RNCNvMNtNtCs6XP26u6y9PQ_14quickstart_lib8template6loaderNtB4_14TemplateLoader26collect_templates_from_dirs_0B8_
FNDA:1,_RNvMNtNtCs6XP26u6y9PQ_14quickstart_lib8template6loaderNtB2_14TemplateLoader13load_template
FNDA:2,_RNvMNtNtCs6XP26u6y9PQ_14quickstart_lib8template6loaderNtB2_14TemplateLoader14list_templates
FNDA:2,_RNvMNtNtCs6XP26u6y9PQ_14quickstart_lib8template6loaderNtB2_14TemplateLoader15template_exists
FNDA:1,_RNvMNtNtCs6XP26u6y9PQ_14quickstart_lib8template6loaderNtB2_14TemplateLoader20get_destination_path
FNDA:5,_RNvMNtNtCs6XP26u6y9PQ_14quickstart_lib8template6loaderNtB2_14TemplateLoader26collect_templates_from_dir
FNDA:0,_RNvMNtNtCs6XP26u6y9PQ_14quickstart_lib8template6loaderNtB2_14TemplateLoader9base_path
FNDA:1,_RNCNvNtNtNtCs6XP26u6y9PQ_14quickstart_lib8template6loader5testss_19test_list_templates0B9_
FNDA:2,_RNCNvNtNtNtCs6XP26u6y9PQ_14quickstart_lib8template6loader5testss_19test_list_templatess_0B9_
FNDA:4,_RNvNtNtNtCs6XP26u6y9PQ_14quickstart_lib8template6loader5tests24create_test_template_dir
FNDA:1,_RNvNtNtNtCs6XP26u6y9PQ_14quickstart_lib8template6loader5testss_18test_load_template
FNDA:1,_RNvNtNtNtCs6XP26u6y9PQ_14quickstart_lib8template6loader5testss_19test_list_templates
FNDA:1,_RNvNtNtNtCs6XP26u6y9PQ_14quickstart_lib8template6loader5testss_20test_template_exists
FNDA:1,_RNvNtNtNtCs6XP26u6y9PQ_14quickstart_lib8template6loader5testss_25test_get_destination_path
FNF:18
FNH:14
DA:21,13
DA:22,13
DA:23,13
DA:24,13
DA:25,13
DA:28,22
DA:29,22
DA:30,22
DA:31,0
DA:32,0
DA:33,0
DA:34,22
DA:37,2
DA:38,2
DA:39,2
DA:40,2
DA:43,19
DA:44,19
DA:45,19
DA:46,19
DA:47,19
DA:49,19
DA:50,12
DA:51,7
DA:54,19
DA:55,7
DA:56,12
DA:59,19
DA:60,19
DA:62,19
DA:63,19
DA:66,19
DA:67,7
DA:68,7
DA:69,7
DA:70,7
DA:71,12
DA:74,12
DA:75,11
DA:76,11
DA:78,1
DA:79,1
DA:83,12
DA:84,12
DA:85,12
DA:87,12
DA:88,90
DA:89,78
DA:90,78
DA:92,12
DA:93,19
DA:97,43
DA:98,43
DA:99,0
DA:100,0
DA:101,0
DA:102,43
DA:104,43
DA:106,108
DA:107,0
DA:108,0
DA:109,0
DA:110,108
DA:111,0
DA:112,0
DA:113,0
DA:115,108
DA:117,108
DA:119,20
DA:120,20
DA:123,88
DA:124,78
DA:125,78
DA:126,78
DA:127,10
DA:131,43
DA:132,43
DA:135,22
DA:137,22
DA:138,22
DA:141,22
DA:142,22
DA:143,22
DA:144,22
DA:147,22
DA:148,22
DA:149,22
DA:150,5
DA:152,5
DA:153,5
DA:155,0
DA:158,17
DA:161,0
DA:165,22
DA:168,22
DA:169,22
DA:170,22
DA:171,0
DA:172,0
DA:174,0
DA:175,22
DA:178,74
DA:179,74
DA:180,74
DA:189,4
DA:191,4
DA:192,0
DA:193,4
DA:195,4
DA:198,4
DA:201,4
DA:202,4
DA:205,4
DA:206,4
DA:209,4
DA:210,4
DA:211,4
DA:213,4
DA:214,4
DA:215,4
DA:216,4
DA:217,4
DA:219,4
DA:221,4
DA:222,4
DA:223,4
DA:224,4
DA:225,4
DA:227,4
DA:229,4
DA:230,4
DA:233,1
DA:235,1
DA:236,0
DA:237,0
DA:238,1
DA:240,1
DA:241,1
DA:243,1
DA:244,1
DA:245,1
DA:248,1
DA:250,1
DA:251,0
DA:252,0
DA:253,1
DA:255,1
DA:256,1
DA:258,1
DA:259,1
DA:260,1
DA:263,1
DA:265,1
DA:266,0
DA:267,0
DA:268,1
DA:270,1
DA:271,1
DA:273,1
DA:274,1
DA:275,1
DA:278,1
DA:281,1
DA:282,1
DA:283,1
DA:284,1
DA:285,1
DA:286,2
DA:288,1
DA:289,1
DA:290,1
DA:293,1
DA:295,1
DA:296,0
DA:297,0
DA:298,1
DA:300,1
DA:301,1
DA:303,1
DA:304,1
DA:306,1
DA:309,1
DA:310,1
BRF:0
BRH:0
LF:188
LH:159
end_of_record
SF:/Users/smeya/git/cargo-quickstart/crates/quickstart-lib/src/template/mod.rs
FN:24,_RNvXNtCsa7f5bF4HDC3_14quickstart_lib8templateNtB2_15TemplateVariantNtNtCs6FgkbHSHiEg_4core7default7Default7default
FN:70,_RNvNtNtCs6XP26u6y9PQ_14quickstart_lib8template5testss_26test_template_variant_enum
FN:24,_RNvXNtCs6XP26u6y9PQ_14quickstart_lib8templateNtB2_15TemplateVariantNtNtCs6FgkbHSHiEg_4core7default7Default7default
FN:104,_RINvNvNtNtCs6XP26u6y9PQ_14quickstart_lib8template5testss_16test_result_type12takes_resulthEB8_
FN:103,_RNvNtNtCs6XP26u6y9PQ_14quickstart_lib8template5testss_16test_result_type
FN:80,_RNvNtNtCs6XP26u6y9PQ_14quickstart_lib8template5testss_28test_template_error_variants
FNDA:0,_RNvXNtCsa7f5bF4HDC3_14quickstart_lib8templateNtB2_15TemplateVariantNtNtCs6FgkbHSHiEg_4core7default7Default7default
FNDA:1,_RNvNtNtCs6XP26u6y9PQ_14quickstart_lib8template5testss_26test_template_variant_enum
FNDA:1,_RNvXNtCs6XP26u6y9PQ_14quickstart_lib8templateNtB2_15TemplateVariantNtNtCs6FgkbHSHiEg_4core7default7Default7default
FNDA:2,_RINvNvNtNtCs6XP26u6y9PQ_14quickstart_lib8template5testss_16test_result_type12takes_resulthEB8_
FNDA:1,_RNvNtNtCs6XP26u6y9PQ_14quickstart_lib8template5testss_16test_result_type
FNDA:1,_RNvNtNtCs6XP26u6y9PQ_14quickstart_lib8template5testss_28test_template_error_variants
FNF:5
FNH:5
DA:24,1
DA:25,1
DA:26,1
DA:70,1
DA:71,1
DA:72,1
DA:73,1
DA:74,1
DA:77,1
DA:80,1
DA:82,1
DA:83,1
DA:84,1
DA:85,1
DA:86,1
DA:89,1
DA:90,1
DA:91,1
DA:92,1
DA:93,1
DA:96,1
DA:97,1
DA:98,1
DA:99,1
DA:100,1
DA:103,1
DA:104,2
DA:105,2
DA:106,2
DA:107,1
DA:108,1
DA:109,1
DA:110,1
DA:111,1
BRF:0
BRH:0
LF:34
LH:34
end_of_record
SF:/Users/smeya/git/cargo-quickstart/crates/quickstart-lib/src/template/variables.rs
FN:104,_RNvMNtNtCsa7f5bF4HDC3_14quickstart_lib8template9variablesNtB2_17TemplateVariables11from_config
FN:104,_RNvMNtNtCs6XP26u6y9PQ_14quickstart_lib8template9variablesNtB2_17TemplateVariables11from_config
FN:160,_RNvMNtNtCs6XP26u6y9PQ_14quickstart_lib8template9variablesNtB2_17TemplateVariables22default_test_variables
FNDA:5,_RNvMNtNtCsa7f5bF4HDC3_14quickstart_lib8template9variablesNtB2_17TemplateVariables11from_config
FNDA:1,_RNvMNtNtCs6XP26u6y9PQ_14quickstart_lib8template9variablesNtB2_17TemplateVariables11from_config
FNDA:7,_RNvMNtNtCs6XP26u6y9PQ_14quickstart_lib8template9variablesNtB2_17TemplateVariables22default_test_variables
FNF:2
FNH:2
DA:104,6
DA:106,6
DA:107,6
DA:108,6
DA:111,6
DA:112,6
DA:113,6
DA:114,6
DA:117,6
DA:118,6
DA:121,6
DA:122,6
DA:125,6
DA:126,6
DA:128,6
DA:129,6
DA:130,6
DA:131,6
DA:132,6
DA:133,6
DA:134,6
DA:135,6
DA:136,6
DA:137,6
DA:138,6
DA:139,6
DA:140,6
DA:141,6
DA:142,6
DA:143,6
DA:144,6
DA:145,6
DA:146,6
DA:147,6
DA:148,6
DA:149,6
DA:150,6
DA:151,6
DA:152,6
DA:153,6
DA:154,6
DA:155,6
DA:156,6
DA:160,7
DA:162,7
DA:163,0
DA:165,7
DA:166,7
DA:169,7
DA:170,7
DA:171,7
DA:172,7
DA:173,7
DA:174,7
DA:175,7
DA:176,7
DA:177,7
DA:178,7
DA:179,7
DA:180,7
DA:181,7
DA:182,7
DA:183,7
DA:184,7
DA:185,7
DA:186,7
DA:187,7
DA:188,7
DA:189,7
DA:190,7
DA:191,7
DA:192,7
DA:193,7
DA:194,7
DA:195,7
DA:196,7
DA:197,7
BRF:0
BRH:0
LF:77
LH:76
end_of_record
SF:/Users/smeya/git/cargo-quickstart/crates/quickstart-lib/src/tools/helpers.rs
FN:31,_RNCNvXNtNtCsa7f5bF4HDC3_14quickstart_lib5tools7helpersNtB4_15LowercaseHelperNtNtCs99WJxGeZ8oU_10handlebars7helpers9HelperDef4call0B8_
FN:85,_RNCNvXs0_NtNtCsa7f5bF4HDC3_14quickstart_lib5tools7helpersNtB7_15SnakeCaseHelperNtNtCs99WJxGeZ8oU_10handlebars7helpers9HelperDef4call0Bb_
FN:113,_RNCNvXs1_NtNtCsa7f5bF4HDC3_14quickstart_lib5tools7helpersNtB7_15KebabCaseHelperNtNtCs99WJxGeZ8oU_10handlebars7helpers9HelperDef4call0Bb_
FN:58,_RNCNvXs_NtNtCsa7f5bF4HDC3_14quickstart_lib5tools7helpersNtB6_15UppercaseHelperNtNtCs99WJxGeZ8oU_10handlebars7helpers9HelperDef4call0Ba_
FN:155,_RNvNtNtCsa7f5bF4HDC3_14quickstart_lib5tools7helpers13to_kebab_case
FN:129,_RNvNtNtCsa7f5bF4HDC3_14quickstart_lib5tools7helpers13to_snake_case
FN:23,_RNvXNtNtCsa7f5bF4HDC3_14quickstart_lib5tools7helpersNtB2_15LowercaseHelperNtNtCs99WJxGeZ8oU_10handlebars7helpers9HelperDef4call
FN:77,_RNvXs0_NtNtCsa7f5bF4HDC3_14quickstart_lib5tools7helpersNtB5_15SnakeCaseHelperNtNtCs99WJxGeZ8oU_10handlebars7helpers9HelperDef4call
FN:105,_RNvXs1_NtNtCsa7f5bF4HDC3_14quickstart_lib5tools7helpersNtB5_15KebabCaseHelperNtNtCs99WJxGeZ8oU_10handlebars7helpers9HelperDef4call
FN:50,_RNvXs_NtNtCsa7f5bF4HDC3_14quickstart_lib5tools7helpersNtB4_15UppercaseHelperNtNtCs99WJxGeZ8oU_10handlebars7helpers9HelperDef4call
FN:31,_RNCNvXNtNtCs6XP26u6y9PQ_14quickstart_lib5tools7helpersNtB4_15LowercaseHelperNtNtCs99WJxGeZ8oU_10handlebars7helpers9HelperDef4call0B8_
FN:85,_RNCNvXs0_NtNtCs6XP26u6y9PQ_14quickstart_lib5tools7helpersNtB7_15SnakeCaseHelperNtNtCs99WJxGeZ8oU_10handlebars7helpers9HelperDef4call0Bb_
FN:113,_RNCNvXs1_NtNtCs6XP26u6y9PQ_14quickstart_lib5tools7helpersNtB7_15KebabCaseHelperNtNtCs99WJxGeZ8oU_10handlebars7helpers9HelperDef4call0Bb_
FN:58,_RNCNvXs_NtNtCs6XP26u6y9PQ_14quickstart_lib5tools7helpersNtB6_15UppercaseHelperNtNtCs99WJxGeZ8oU_10handlebars7helpers9HelperDef4call0Ba_
FN:155,_RNvNtNtCs6XP26u6y9PQ_14quickstart_lib5tools7helpers13to_kebab_case
FN:129,_RNvNtNtCs6XP26u6y9PQ_14quickstart_lib5tools7helpers13to_snake_case
FN:23,_RNvXNtNtCs6XP26u6y9PQ_14quickstart_lib5tools7helpersNtB2_15LowercaseHelperNtNtCs99WJxGeZ8oU_10handlebars7helpers9HelperDef4call
FN:77,_RNvXs0_NtNtCs6XP26u6y9PQ_14quickstart_lib5tools7helpersNtB5_15SnakeCaseHelperNtNtCs99WJxGeZ8oU_10handlebars7helpers9HelperDef4call
FN:105,_RNvXs1_NtNtCs6XP26u6y9PQ_14quickstart_lib5tools7helpersNtB5_15KebabCaseHelperNtNtCs99WJxGeZ8oU_10handlebars7helpers9HelperDef4call
FN:50,_RNvXs_NtNtCs6XP26u6y9PQ_14quickstart_lib5tools7helpersNtB4_15UppercaseHelperNtNtCs99WJxGeZ8oU_10handlebars7helpers9HelperDef4call
FN:187,_RNvNtNtNtCs6XP26u6y9PQ_14quickstart_lib5tools7helpers5testss_21test_lowercase_helper
FN:200,_RNvNtNtNtCs6XP26u6y9PQ_14quickstart_lib5tools7helpers5testss_21test_uppercase_helper
FN:226,_RNvNtNtNtCs6XP26u6y9PQ_14quickstart_lib5tools7helpers5testss_22test_kebab_case_helper
FN:213,_RNvNtNtNtCs6XP26u6y9PQ_14quickstart_lib5tools7helpers5testss_22test_snake_case_helper
FN:239,_RNvNtNtNtCs6XP26u6y9PQ_14quickstart_lib5tools7helpers5testss_25test_helper_missing_param
FN:259,_RNvNtNtNtCs6XP26u6y9PQ_14quickstart_lib5tools7helpers5testss_28test_helper_non_string_param
FN:289,_RNvNtNtNtCs6XP26u6y9PQ_14quickstart_lib5tools7helpers5testss_29test_to_kebab_case_edge_cases
FN:280,_RNvNtNtNtCs6XP26u6y9PQ_14quickstart_lib5tools7helpers5testss_29test_to_snake_case_edge_cases
FNDA:0,_RNCNvXNtNtCsa7f5bF4HDC3_14quickstart_lib5tools7helpersNtB4_15LowercaseHelperNtNtCs99WJxGeZ8oU_10handlebars7helpers9HelperDef4call0B8_
FNDA:0,_RNCNvXs0_NtNtCsa7f5bF4HDC3_14quickstart_lib5tools7helpersNtB7_15SnakeCaseHelperNtNtCs99WJxGeZ8oU_10handlebars7helpers9HelperDef4call0Bb_
FNDA:0,_RNCNvXs1_NtNtCsa7f5bF4HDC3_14quickstart_lib5tools7helpersNtB7_15KebabCaseHelperNtNtCs99WJxGeZ8oU_10handlebars7helpers9HelperDef4call0Bb_
FNDA:0,_RNCNvXs_NtNtCsa7f5bF4HDC3_14quickstart_lib5tools7helpersNtB6_15UppercaseHelperNtNtCs99WJxGeZ8oU_10handlebars7helpers9HelperDef4call0Ba_
FNDA:0,_RNvNtNtCsa7f5bF4HDC3_14quickstart_lib5tools7helpers13to_kebab_case
FNDA:0,_RNvNtNtCsa7f5bF4HDC3_14quickstart_lib5tools7helpers13to_snake_case
FNDA:0,_RNvXNtNtCsa7f5bF4HDC3_14quickstart_lib5tools7helpersNtB2_15LowercaseHelperNtNtCs99WJxGeZ8oU_10handlebars7helpers9HelperDef4call
FNDA:0,_RNvXs0_NtNtCsa7f5bF4HDC3_14quickstart_lib5tools7helpersNtB5_15SnakeCaseHelperNtNtCs99WJxGeZ8oU_10handlebars7helpers9HelperDef4call
FNDA:0,_RNvXs1_NtNtCsa7f5bF4HDC3_14quickstart_lib5tools7helpersNtB5_15KebabCaseHelperNtNtCs99WJxGeZ8oU_10handlebars7helpers9HelperDef4call
FNDA:0,_RNvXs_NtNtCsa7f5bF4HDC3_14quickstart_lib5tools7helpersNtB4_15UppercaseHelperNtNtCs99WJxGeZ8oU_10handlebars7helpers9HelperDef4call
FNDA:1,_RNCNvXNtNtCs6XP26u6y9PQ_14quickstart_lib5tools7helpersNtB4_15LowercaseHelperNtNtCs99WJxGeZ8oU_10handlebars7helpers9HelperDef4call0B8_
FNDA:1,_RNCNvXs0_NtNtCs6XP26u6y9PQ_14quickstart_lib5tools7helpersNtB7_15SnakeCaseHelperNtNtCs99WJxGeZ8oU_10handlebars7helpers9HelperDef4call0Bb_
FNDA:1,_RNCNvXs1_NtNtCs6XP26u6y9PQ_14quickstart_lib5tools7helpersNtB7_15KebabCaseHelperNtNtCs99WJxGeZ8oU_10handlebars7helpers9HelperDef4call0Bb_
FNDA:1,_RNCNvXs_NtNtCs6XP26u6y9PQ_14quickstart_lib5tools7helpersNtB6_15UppercaseHelperNtNtCs99WJxGeZ8oU_10handlebars7helpers9HelperDef4call0Ba_
FNDA:7,_RNvNtNtCs6XP26u6y9PQ_14quickstart_lib5tools7helpers13to_kebab_case
FNDA:7,_RNvNtNtCs6XP26u6y9PQ_14quickstart_lib5tools7helpers13to_snake_case
FNDA:3,_RNvXNtNtCs6XP26u6y9PQ_14quickstart_lib5tools7helpersNtB2_15LowercaseHelperNtNtCs99WJxGeZ8oU_10handlebars7helpers9HelperDef4call
FNDA:3,_RNvXs0_NtNtCs6XP26u6y9PQ_14quickstart_lib5tools7helpersNtB5_15SnakeCaseHelperNtNtCs99WJxGeZ8oU_10handlebars7helpers9HelperDef4call
FNDA:3,_RNvXs1_NtNtCs6XP26u6y9PQ_14quickstart_lib5tools7helpersNtB5_15KebabCaseHelperNtNtCs99WJxGeZ8oU_10handlebars7helpers9HelperDef4call
FNDA:3,_RNvXs_NtNtCs6XP26u6y9PQ_14quickstart_lib5tools7helpersNtB4_15UppercaseHelperNtNtCs99WJxGeZ8oU_10handlebars7helpers9HelperDef4call
FNDA:1,_RNvNtNtNtCs6XP26u6y9PQ_14quickstart_lib5tools7helpers5testss_21test_lowercase_helper
FNDA:1,_RNvNtNtNtCs6XP26u6y9PQ_14quickstart_lib5tools7helpers5testss_21test_uppercase_helper
FNDA:1,_RNvNtNtNtCs6XP26u6y9PQ_14quickstart_lib5tools7helpers5testss_22test_kebab_case_helper
FNDA:1,_RNvNtNtNtCs6XP26u6y9PQ_14quickstart_lib5tools7helpers5testss_22test_snake_case_helper
FNDA:1,_RNvNtNtNtCs6XP26u6y9PQ_14quickstart_lib5tools7helpers5testss_25test_helper_missing_param
FNDA:1,_RNvNtNtNtCs6XP26u6y9PQ_14quickstart_lib5tools7helpers5testss_28test_helper_non_string_param
FNDA:1,_RNvNtNtNtCs6XP26u6y9PQ_14quickstart_lib5tools7helpers5testss_29test_to_kebab_case_edge_cases
FNDA:1,_RNvNtNtNtCs6XP26u6y9PQ_14quickstart_lib5tools7helpers5testss_29test_to_snake_case_edge_cases
FNF:18
FNH:18
DA:23,3
DA:24,3
DA:25,3
DA:26,3
DA:27,3
DA:28,3
DA:29,3
DA:30,3
DA:31,3
DA:32,1
DA:33,1
DA:34,1
DA:35,1
DA:36,1
DA:38,2
DA:39,2
DA:41,2
DA:42,3
DA:50,3
DA:51,3
DA:52,3
DA:53,3
DA:54,3
DA:55,3
DA:56,3
DA:57,3
DA:58,3
DA:59,1
DA:60,1
DA:61,1
DA:62,1
DA:63,1
DA:65,2
DA:66,2
DA:68,2
DA:69,3
DA:77,3
DA:78,3
DA:79,3
DA:80,3
DA:81,3
DA:82,3
DA:83,3
DA:84,3
DA:85,3
DA:86,1
DA:87,1
DA:88,1
DA:89,1
DA:90,1
DA:92,2
DA:93,2
DA:94,2
DA:96,2
DA:97,3
DA:105,3
DA:106,3
DA:107,3
DA:108,3
DA:109,3
DA:110,3
DA:111,3
DA:112,3
DA:113,3
DA:114,1
DA:115,1
DA:116,1
DA:117,1
DA:118,1
DA:120,2
DA:121,2
DA:122,2
DA:124,2
DA:125,3
DA:129,7
DA:130,7
DA:131,7
DA:132,49
DA:133,49
DA:134,7
DA:135,4
DA:136,4
DA:137,7
DA:138,7
DA:139,7
DA:140,7
DA:141,42
DA:142,3
DA:143,3
DA:144,3
DA:145,3
DA:146,39
DA:147,39
DA:148,39
DA:149,39
DA:151,7
DA:152,7
DA:155,7
DA:156,7
DA:157,7
DA:158,56
DA:159,56
DA:160,5
DA:161,3
DA:162,3
DA:163,5
DA:164,5
DA:165,5
DA:166,5
DA:167,51
DA:168,4
DA:169,4
DA:170,4
DA:171,4
DA:172,47
DA:173,47
DA:174,47
DA:175,47
DA:177,7
DA:178,7
DA:187,1
DA:188,1
DA:189,1
DA:191,1
DA:192,1
DA:193,1
DA:195,1
DA:196,1
DA:197,1
DA:200,1
DA:201,1
DA:202,1
DA:204,1
DA:205,1
DA:206,1
DA:208,1
DA:209,1
DA:210,1
DA:213,1
DA:214,1
DA:215,1
DA:217,1
DA:218,1
DA:219,1
DA:221,1
DA:222,1
DA:223,1
DA:226,1
DA:227,1
DA:228,1
DA:230,1
DA:231,1
DA:232,1
DA:234,1
DA:235,1
DA:236,1
DA:239,1
DA:240,1
DA:241,1
DA:242,1
DA:243,1
DA:244,1
DA:246,1
DA:247,5
DA:248,4
DA:249,4
DA:250,4
DA:251,4
DA:252,4
DA:253,0
DA:256,1
DA:259,1
DA:260,1
DA:261,1
DA:262,1
DA:263,1
DA:264,1
DA:266,1
DA:267,1
DA:269,1
DA:270,5
DA:271,4
DA:272,4
DA:274,4
DA:275,4
DA:277,1
DA:280,1
DA:281,1
DA:282,1
DA:283,1
DA:284,1
DA:285,1
DA:286,1
DA:289,1
DA:290,1
DA:291,1
DA:292,1
DA:293,1
DA:294,1
DA:295,1
BRF:0
BRH:0
LF:208
LH:207
end_of_record